(lp0
(lp1
I1
aF0.645876792
aNaI1
aF61.13109444
aF2.0
aF2.0
aNaI5
aF1.0
aF3.0
aI1
aF71.0
aF19.0
aa(lp2
I1
aF0.543700373
aF0.664659244
aNaF65.39133839
aF1.0
aF-1.0
aI2
aI3
aF2.0
aF3.0
aI0
aF58.0
aF53.0
aa(lp3
I0
aF0.415205135
aF0.472524343
aI0
aF66.87620924
aF1.0
aF3.0
aI3
aI5
aF2.0
aF1.0
aI0
aF17.0
aF54.0
aa(lp4
I0
aF0.740131677
aF0.494029897
aI1
aF82.08550931
aF0.0
aF2.0
aI5
aI3
aF2.0
aF3.0
aI0
aF41.0
aF43.0
aa(lp5
I0
aF0.70289948
aF0.425761617
aI-1
aF65.90396767
aF0.0
aF3.0
aI4
aI5
aF2.0
aF4.0
aI1
aF49.0
aF56.0
aa(lp6
I0
aF0.712956787
aF0.340861598
aI-1
aF71.57180083
aF1.0
aF3.0
aI3
aI2
aF3.0
aF5.0
aI1
aF26.0
aF57.0
aa(lp7
I0
aF0.498324482
aNaI0
aF56.79760653
aF0.0
aF1.0
aI5
aI3
aF2.0
aF1.0
aI0
aNaF47.0
aa(lp8
I1
aF0.810310041
aF0.375600184
aI1
aF74.96343189
aF3.0
aF1.0
aI5
aI3
aF3.0
aF1.0
aNaF51.0
aF47.0
aa(lp9
I1
aF0.32697748
aF0.543994769
aI0
aF64.75846754
aF2.0
aF0.0
aI1
aI2
aF3.0
aF3.0
aI0
aF30.0
aF20.0
aa(lp10
I0
aF0.733794366
aF0.242712344
aI1
aF61.61913255
aF4.0
aF2.0
aNaI3
aF2.0
aF0.0
aI1
aF63.0
aF48.0
aa(lp11
I1
aF0.563164811
aF0.838944719
aI1
aF54.48399056
aF2.0
aF1.0
aI1
aI3
aF3.0
aF2.0
aI1
aF75.0
aF48.0
aa(lp12
I0
aF0.617303074
aF0.642488912
aI-1
aF63.25014723
aF2.0
aF3.0
aI4
aI5
aF3.0
aF3.0
aI0
aF29.0
aF76.0
aa(lp13
I0
aF0.380194641
aF0.565943294
aI0
aF72.60861278
aF1.0
aF2.0
aI3
aI4
aF2.0
aF2.0
aI1
aF32.0
aF58.0
aa(lp14
I0
aF0.490530646
aF0.846651946
aI1
aF69.11818095
aF1.0
aF2.0
aI3
aI2
aF1.0
aF4.0
aI0
aF42.0
aF40.0
aa(lp15
I1
aF0.677622692
aF0.453605636
aI0
aF70.8322085
aF0.0
aF2.0
aI4
aI5
aF2.0
aF3.0
aI1
aF71.0
aF21.0
aa(lp16
I1
aF0.290482366
aF0.800353582
aI0
aF61.82987929
aF3.0
aF2.0
aI4
aI4
aF1.0
aF2.0
aI0
aF68.0
aF83.0
aa(lp17
I1
aF0.178755435
aNaI0
aF58.72150432
aF2.0
aF2.0
aI3
aI2
aF3.0
aNaI1
aF86.0
aNaa(lp18
I1
aF0.565474816
aF0.68108603
aI1
aF62.58297772
aF3.0
aF3.0
aI1
aI5
aF0.0
aF3.0
aI1
aF27.0
aF33.0
aa(lp19
I1
aF0.296839147
aNaI1
aF62.19119486
aF2.0
aNaI1
aI3
aF2.0
aF2.0
aI1
aF5.0
aF64.0
aa(lp20
I1
aF0.532362543
aF0.882886674
aI1
aF62.23195968
aF0.0
aF0.0
aI5
aI3
aF2.0
aF2.0
aI1
aF47.0
aF32.0
aa(lp21
I1
aF0.321845788
aF0.261062525
aI1
aF74.44628497
aF3.0
aF1.0
aNaI5
aF2.0
aF3.0
aI1
aF32.0
aF71.0
aa(lp22
I0
aF0.884012212
aNaI1
aF56.92491515
aF2.0
aF1.0
aI4
aI2
aF1.0
aF2.0
aI0
aF33.0
aF64.0
aa(lp23
I0
aF0.611767026
aNaI-1
aF65.06409196
aNaF3.0
aI3
aI1
aF2.0
aF2.0
aI1
aF29.0
aF28.0
aa(lp24
I1
aF0.698870723
aF0.577587232
aI-1
aF73.7453661
aF2.0
aF0.0
aI4
aI1
aF2.0
aF3.0
aI0
aF42.0
aF34.0
aa(lp25
I1
aF0.551395729
aF0.417287134
aI-1
aF60.27659398
aF3.0
aF1.0
aI2
aI4
aF2.0
aF3.0
aI1
aF48.0
aF47.0
aa(lp26
I0
aF0.560771189
aF0.583195598
aI0
aF68.49406613
aF3.0
aF4.0
aNaI1
aF3.0
aF3.0
aI1
aF32.0
aF62.0
aa(lp27
I1
aF0.597873005
aF0.333631979
aI0
aF64.04493233
aF2.0
aNaNaI5
aF2.0
aF2.0
aI1
aF53.0
aF50.0
aa(lp28
I0
aF0.711190716
aF0.47393416
aI0
aF63.43260443
aF0.0
aF1.0
aI3
aI2
aF3.0
aF4.0
aI1
aNaF42.0
aa(lp29
I0
aF0.388647802
aF0.061920854
aI1
aF51.51220723
aF1.0
aF3.0
aI3
aI4
aF1.0
aF3.0
aI0
aF56.0
aF44.0
aa(lp30
I1
aF0.50000689
aNaI1
aF68.79492562
aF2.0
aF1.0
aI5
aI3
aF3.0
aF0.0
aI0
aF72.0
aF43.0
aa(lp31
I1
aF0.469406287
aF0.280096907
aI0
aF64.90666671
aNaF1.0
aI3
aI3
aF4.0
aF4.0
aI0
aNaF9.0
aa(lp32
I0
aF0.387482473
aF0.57597901
aI0
aF67.34726818
aF1.0
aF3.0
aI1
aI1
aF3.0
aF2.0
aI1
aF43.0
aF72.0
aa(lp33
I1
aNaF0.648694639
aI1
aF73.76955255
aF1.0
aF1.0
aI1
aI5
aF1.0
aNaI1
aF47.0
aF71.0
aa(lp34
I0
aF0.661899761
aF0.181462023
aI-1
aF59.34738884
aF1.0
aF0.0
aI4
aI4
aF3.0
aF4.0
aI0
aF35.0
aF46.0
aa(lp35
I0
aF0.132482584
aF0.296881694
aI1
aF47.65547242
aF1.0
aF3.0
aI1
aI5
aF1.0
aF3.0
aI1
aF6.0
aF76.0
aa(lp36
I1
aF0.326859757
aF0.543801741
aI-1
aF59.7622565
aF2.0
aF1.0
aI4
aI2
aF4.0
aF1.0
aI0
aF54.0
aF103.0
aa(lp37
I0
aF0.683701567
aF0.111934091
aI0
aF56.23451188
aNaF0.0
aI1
aI3
aF2.0
aF2.0
aI0
aF19.0
aF61.0
aa(lp38
I0
aF0.261561969
aF0.557390618
aI-1
aF55.68957135
aF1.0
aF2.0
aI1
aI3
aF4.0
aF4.0
aI0
aF8.0
aF41.0
aa(lp39
I0
aF0.711226362
aF0.691679042
aI-1
aNaF0.0
aF1.0
aNaI3
aF2.0
aF4.0
aI1
aNaF43.0
aa(lp40
I1
aF0.434023165
aF0.220153134
aI-1
aNaNaF0.0
aI1
aI4
aNaF0.0
aI1
aF41.0
aF48.0
aa(lp41
I1
aF0.544633748
aF0.623400522
aI-1
aNaF1.0
aF-1.0
aI5
aI2
aF3.0
aF4.0
aI0
aF19.0
aF54.0
aa(lp42
I1
aF0.525758115
aF0.672109251
aI1
aF56.69207295
aNaF1.0
aI3
aI1
aF3.0
aF2.0
aI1
aF14.0
aF39.0
aa(lp43
I1
aF0.617984812
aF0.447642814
aI0
aF74.486763
aF2.0
aF2.0
aI3
aI4
aNaF3.0
aI0
aF90.0
aF79.0
aa(lp44
I1
aF0.498297343
aF0.573613835
aNaNaF3.0
aF0.0
aI2
aI3
aF3.0
aF3.0
aI0
aF70.0
aF34.0
aa(lp45
I0
aF0.683773537
aF0.290520674
aNaF51.77719278
aF1.0
aF1.0
aI3
aI4
aF2.0
aNaI0
aNaF87.0
aa(lp46
I1
aF0.197460539
aF0.71775107
aI1
aF67.9749452
aF2.0
aF2.0
aI4
aI3
aF1.0
aF3.0
aI1
aNaF48.0
aa(lp47
I1
aF0.251965977
aF0.397108391
aI0
aF81.88839456
aF1.0
aF1.0
aNaI1
aF2.0
aF3.0
aI0
aF53.0
aF10.0
aa(lp48
I1
aF0.284498166
aF0.326988359
aI1
aF58.42626683
aF3.0
aF3.0
aNaI1
aNaF3.0
aI1
aF74.0
aF57.0
aa(lp49
I1
aNaF-0.027876735
aI-1
aF61.8603317
aF1.0
aF0.0
aI2
aI1
aF2.0
aF1.0
aI0
aNaF34.0
aa(lp50
I1
aF0.590079294
aF0.423661897
aI0
aF65.81002165
aF0.0
aF0.0
aI4
aNaF2.0
aF1.0
aI1
aF116.0
aF43.0
aa(lp51
I1
aF0.672660319
aF0.455823115
aI0
aF67.83191063
aF3.0
aF1.0
aNaI4
aF1.0
aF4.0
aI1
aF64.0
aF43.0
aa(lp52
I0
aF0.423863312
aF0.706522041
aI-1
aF65.08047207
aF1.0
aF4.0
aI5
aI1
aF2.0
aF2.0
aI0
aF50.0
aF45.0
aa(lp53
I1
aF0.414498464
aF0.524967403
aI1
aF60.13775094
aF3.0
aF3.0
aI4
aNaF2.0
aF2.0
aI1
aNaF49.0
aa(lp54
I1
aF0.634650849
aF0.711824348
aI1
aF64.54899974
aF0.0
aF0.0
aI4
aI5
aF3.0
aF2.0
aI1
aF62.0
aF66.0
aa(lp55
I0
aF0.664639591
aF0.392359332
aI1
aF62.5181404
aF1.0
aF2.0
aI4
aI5
aF4.0
aF1.0
aI0
aF65.0
aF54.0
aa(lp56
I0
aF0.813642612
aF0.536611902
aI-1
aF70.89283035
aF1.0
aF2.0
aNaI2
aNaF2.0
aI0
aF9.0
aF83.0
aa(lp57
I1
aF0.206648574
aF0.655985704
aI-1
aF74.66874597
aF2.0
aF1.0
aI4
aI4
aF1.0
aF3.0
aI1
aF22.0
aF44.0
aa(lp58
I0
aF0.666273883
aF0.452083575
aI0
aF66.26066569
aF1.0
aF2.0
aI1
aI5
aF4.0
aNaI1
aF91.0
aF57.0
aa(lp59
I0
aF0.680083985
aF0.814680266
aI0
aF72.46330561
aF1.0
aF3.0
aI4
aI3
aF3.0
aF2.0
aI1
aF52.0
aF45.0
aa(lp60
I1
aF1.005928841
aF0.361561305
aNaF72.20221577
aF2.0
aF2.0
aI2
aI5
aF3.0
aF2.0
aI1
aF82.0
aF39.0
aa(lp61
I1
aF0.448821392
aNaI0
aF62.72338989
aF2.0
aF1.0
aI2
aI5
aNaNaI0
aF59.0
aF70.0
aa(lp62
I0
aNaF0.472947576
aI-1
aF52.01798292
aF1.0
aF2.0
aI1
aI1
aF3.0
aF3.0
aI1
aF75.0
aF70.0
aa(lp63
I0
aF0.439159555
aNaI1
aF68.09465007
aF-1.0
aF4.0
aI5
aI5
aF3.0
aF4.0
aI1
aF32.0
aF41.0
aa(lp64
I1
aF0.465865797
aF0.912031793
aI-1
aF64.42957937
aF3.0
aF1.0
aI3
aI1
aF1.0
aF2.0
aI1
aF57.0
aF64.0
aa(lp65
I1
aF0.356525753
aF0.896365908
aI1
aF60.70273936
aF1.0
aF2.0
aI3
aI2
aF2.0
aF1.0
aI1
aF73.0
aF33.0
aa(lp66
I1
aF0.662286547
aF0.589269
aI1
aF81.64289184
aF1.0
aF0.0
aNaI4
aF3.0
aF2.0
aI0
aF64.0
aF31.0
aa(lp67
I1
aF0.404882478
aF0.453535084
aI-1
aF69.76738607
aF2.0
aF0.0
aI1
aI1
aF2.0
aNaI0
aF7.0
aF10.0
aa(lp68
I1
aF0.207984925
aF0.476922653
aI0
aF74.26170307
aF2.0
aF2.0
aI4
aI4
aF3.0
aF4.0
aI0
aF45.0
aF47.0
aa(lp69
I1
aF0.780717823
aF0.405554434
aI-1
aF58.64467933
aF3.0
aF1.0
aI1
aI4
aF4.0
aF1.0
aI1
aF71.0
aF46.0
aa(lp70
I1
aF0.692199287
aF0.328084292
aI1
aF75.09424763
aF3.0
aF3.0
aI1
aNaF1.0
aF1.0
aI1
aF80.0
aF42.0
aa(lp71
I0
aF0.625229323
aF0.457184804
aI0
aF67.01515974
aF1.0
aF2.0
aI1
aI3
aF2.0
aF3.0
aI1
aF39.0
aF56.0
aa(lp72
I1
aF0.401288562
aF0.407151251
aI-1
aF72.68878816
aF1.0
aF1.0
aI2
aI5
aF4.0
aF3.0
aI0
aF68.0
aF58.0
aa(lp73
I0
aF0.69742813
aF0.495391689
aI0
aF62.74921921
aF2.0
aF3.0
aI3
aI4
aF3.0
aF3.0
aI0
aF42.0
aF16.0
aa(lp74
I1
aF0.522293916
aF0.647518127
aI-1
aNaF2.0
aF2.0
aI5
aI5
aF2.0
aF3.0
aI1
aF58.0
aF24.0
aa(lp75
I1
aF0.371949642
aF0.782861019
aI-1
aF62.58082007
aF2.0
aF1.0
aI5
aI2
aF2.0
aF0.0
aI1
aF60.0
aF68.0
aa(lp76
I0
aF0.572596939
aF0.56640863
aI0
aF69.24515733
aF1.0
aF3.0
aI3
aI4
aF0.0
aF4.0
aI0
aF66.0
aF70.0
aa(lp77
I1
aF0.465623384
aF0.494932381
aI1
aF60.68498483
aF2.0
aF1.0
aI1
aI5
aF4.0
aF3.0
aI0
aF62.0
aF75.0
aa(lp78
I0
aF0.382524886
aF0.318525132
aI-1
aF75.85844671
aF1.0
aF2.0
aI5
aI1
aF1.0
aF2.0
aI1
aF62.0
aNaa(lp79
I1
aF0.810102719
aF0.617050533
aI-1
aF63.87283969
aF2.0
aF-1.0
aI3
aI2
aF3.0
aF3.0
aI1
aF17.0
aF39.0
aa(lp80
I0
aF0.272865034
aF0.7146318
aI-1
aF49.60530405
aF1.0
aF2.0
aI5
aI2
aF1.0
aF2.0
aI1
aF44.0
aF50.0
aa(lp81
I1
aF0.337462029
aF0.819755525
aI-1
aF80.24321433
aF2.0
aF2.0
aI2
aI3
aF4.0
aF3.0
aI1
aF45.0
aF64.0
aa(lp82
I1
aF0.513545511
aF0.672416851
aI0
aF75.2381757
aF2.0
aF1.0
aI1
aI4
aF3.0
aF2.0
aI1
aF62.0
aF70.0
aa(lp83
I0
aF0.820238784
aF0.391066002
aI1
aF61.93217736
aF1.0
aNaI4
aI5
aF3.0
aF3.0
aI0
aF43.0
aF54.0
aa(lp84
I0
aF0.357882201
aF0.622313087
aI1
aF64.06950872
aF0.0
aF1.0
aI4
aI5
aF2.0
aF2.0
aI1
aF26.0
aNaa(lp85
I0
aF0.793618608
aF0.477399894
aI0
aF53.77056157
aF3.0
aF3.0
aI4
aI2
aF3.0
aF1.0
aI1
aF28.0
aF57.0
aa(lp86
I1
aF0.475168726
aF0.925348789
aI1
aF62.58845719
aF2.0
aF1.0
aI4
aI2
aF2.0
aF4.0
aI0
aF89.0
aF80.0
aa(lp87
I1
aF0.327688626
aF0.379502693
aI1
aF74.23669351
aF3.0
aF1.0
aI2
aI2
aF4.0
aF1.0
aI1
aF56.0
aNaa(lp88
I1
aF0.618049025
aF0.730819504
aI1
aF63.63858705
aF2.0
aF2.0
aI5
aI5
aF2.0
aF1.0
aI1
aF44.0
aF63.0
aa(lp89
I0
aF0.157968817
aF0.320448651
aI0
aF64.0001257
aF1.0
aF2.0
aI2
aI1
aF4.0
aF1.0
aI0
aF11.0
aF59.0
aa(lp90
I1
aF0.487180623
aF0.967903494
aI1
aF74.97411895
aF3.0
aF3.0
aI3
aI4
aF2.0
aF3.0
aI1
aNaF62.0
aa(lp91
I1
aF0.410732112
aF0.404436408
aI-1
aF64.87072524
aF0.0
aF0.0
aI4
aI4
aF2.0
aF1.0
aI1
aF30.0
aF49.0
aa(lp92
I1
aF0.255103402
aF0.32616807
aI1
aF61.68657918
aF3.0
aF3.0
aI1
aI1
aF3.0
aF3.0
aI0
aF61.0
aF29.0
aa(lp93
I1
aF0.626594693
aF0.599709815
aI0
aF62.54891161
aF2.0
aF0.0
aI1
aI1
aF2.0
aF1.0
aI1
aF76.0
aF40.0
aa(lp94
I1
aF0.56685322
aF0.340187565
aI1
aF62.71242809
aF1.0
aF0.0
aI4
aI2
aF2.0
aF2.0
aI1
aF67.0
aF36.0
aa(lp95
I1
aF0.491888772
aF0.434656867
aI1
aF77.52219581
aF1.0
aF0.0
aI1
aI5
aF3.0
aNaI1
aNaF26.0
aa(lp96
I0
aF0.329829326
aF0.452789909
aI1
aF65.54803427
aF0.0
aF2.0
aI5
aI1
aF3.0
aF3.0
aI0
aF92.0
aF66.0
aa(lp97
I1
aF0.556095483
aF0.5790996
aI-1
aF79.85054592
aF2.0
aF1.0
aI1
aI2
aF4.0
aF3.0
aI1
aF68.0
aF52.0
aa(lp98
I1
aF0.403774165
aF0.90376117
aI0
aF57.84704316
aF2.0
aF2.0
aI5
aI2
aF3.0
aF3.0
aNaF52.0
aF10.0
aa(lp99
I1
aF0.509104665
aF0.364565683
aI-1
aF68.92634036
aF1.0
aF1.0
aI4
aNaF2.0
aF2.0
aI0
aF28.0
aF15.0
aa(lp100
I1
aF0.550987606
aNaI0
aF72.15739839
aF3.0
aF1.0
aNaI4
aF1.0
aF1.0
aI0
aF79.0
aF22.0
aa(lp101
I1
aF0.324283066
aF0.404665082
aI0
aF58.05142134
aF2.0
aF1.0
aI2
aI2
aF4.0
aF1.0
aI0
aF46.0
aF37.0
aa(lp102
I1
aF0.338389885
aF0.313361032
aI-1
aF67.18372319
aF1.0
aF1.0
aI5
aI2
aF3.0
aF3.0
aNaF32.0
aF20.0
aa(lp103
I1
aF0.356063666
aF0.611812253
aI1
aF62.88611703
aF3.0
aF3.0
aI4
aI4
aF3.0
aF3.0
aI0
aF41.0
aF75.0
aa(lp104
I0
aF0.77797068
aF0.085206491
aI0
aF68.00906766
aF1.0
aF1.0
aI4
aI1
aF2.0
aF2.0
aI0
aF39.0
aF64.0
aa(lp105
I1
aF0.427087069
aF0.566756239
aNaNaF0.0
aF-1.0
aI5
aI1
aF3.0
aF3.0
aI0
aF75.0
aF22.0
aa(lp106
I0
aF0.515508567
aF0.548692984
aI1
aF64.34131689
aNaF3.0
aI3
aI3
aF3.0
aF4.0
aI0
aF57.0
aF47.0
aa(lp107
I1
aF0.551262277
aF0.579746584
aI-1
aF73.0939315
aF2.0
aF1.0
aI1
aI1
aF3.0
aF3.0
aI1
aF9.0
aF33.0
aa(lp108
I0
aF0.474870732
aF0.401929001
aI1
aF70.19975824
aF0.0
aF2.0
aI4
aI5
aF3.0
aF2.0
aI1
aF47.0
aF72.0
aa(lp109
I0
aF0.529580389
aF0.385496208
aI1
aNaF0.0
aNaI1
aNaF2.0
aF3.0
aI1
aF37.0
aF56.0
aa(lp110
I1
aF0.22562714
aF0.240394286
aI-1
aF56.90356057
aF2.0
aF2.0
aI3
aI1
aF2.0
aF4.0
aI0
aF4.0
aF50.0
aa(lp111
I1
aF0.574156641
aF0.543489694
aI-1
aF66.88522536
aF2.0
aNaI1
aI2
aF2.0
aF3.0
aI1
aF77.0
aF101.0
aa(lp112
I1
aF0.441275233
aNaI0
aF66.18825607
aF1.0
aF0.0
aI3
aI4
aF3.0
aF2.0
aI0
aF27.0
aF52.0
aa(lp113
I1
aF0.119807984
aF0.393319392
aI0
aF74.96262335
aF3.0
aF1.0
aI2
aI4
aF2.0
aF1.0
aI0
aF34.0
aF55.0
aa(lp114
I1
aF0.553788316
aF1.063989129
aI1
aF75.91943793
aF2.0
aF2.0
aI2
aI2
aF3.0
aF2.0
aI0
aNaF42.0
aa(lp115
I1
aNaF0.491017464
aI-1
aF69.41384191
aF1.0
aF0.0
aI4
aI1
aF1.0
aF3.0
aI1
aF21.0
aF41.0
aa(lp116
I1
aF0.315655868
aNaI1
aF69.20195474
aF3.0
aF3.0
aI4
aI5
aF3.0
aF4.0
aI1
aF69.0
aF39.0
aa(lp117
I0
aF0.739060054
aF0.540985824
aI1
aNaF1.0
aF2.0
aI3
aI1
aF2.0
aF3.0
aI0
aF34.0
aF19.0
aa(lp118
I1
aF0.412857847
aF0.354916694
aI0
aF81.43114427
aF1.0
aF0.0
aI2
aI3
aF2.0
aF3.0
aI1
aF50.0
aF41.0
aa(lp119
I1
aF0.504959721
aF0.874259221
aI1
aF71.39053355
aNaF1.0
aI5
aNaF2.0
aF2.0
aI0
aF43.0
aF78.0
aa(lp120
I0
aNaNaI0
aF60.31387269
aF0.0
aF2.0
aI5
aI2
aF3.0
aF2.0
aI0
aNaF27.0
aa(lp121
I1
aF0.336408659
aF0.33079557
aI-1
aF58.20327815
aF2.0
aF1.0
aI2
aI4
aF1.0
aF3.0
aI1
aF60.0
aF25.0
aa(lp122
I1
aF0.592868974
aF0.541927513
aI-1
aF72.53563179
aF2.0
aF0.0
aI4
aI5
aF4.0
aF3.0
aI1
aF59.0
aF60.0
aa(lp123
I0
aF0.599746082
aF0.200613232
aI0
aF64.38289203
aF2.0
aF1.0
aI4
aI5
aF3.0
aF3.0
aI0
aF96.0
aNaa(lp124
I1
aF0.492701179
aF0.339765099
aI0
aF59.22882059
aF1.0
aF1.0
aI5
aI2
aF4.0
aF2.0
aI0
aF59.0
aF59.0
aa(lp125
I0
aF0.259648089
aNaI-1
aF68.57432952
aF1.0
aF2.0
aI4
aI1
aF4.0
aF3.0
aI1
aNaF40.0
aa(lp126
I1
aF0.20262165
aF0.558516297
aI1
aNaF1.0
aF1.0
aI1
aI5
aF4.0
aF3.0
aI1
aF58.0
aF20.0
aa(lp127
I0
aF0.435460677
aF0.664660425
aI0
aF66.6915089
aF0.0
aF1.0
aI4
aI1
aF4.0
aF2.0
aI1
aF35.0
aF52.0
aa(lp128
I1
aF0.757730596
aF0.529568094
aI0
aF71.31645334
aF1.0
aF1.0
aI5
aI1
aF3.0
aF3.0
aI0
aF37.0
aF53.0
aa(lp129
I0
aF0.388110756
aF0.624889497
aI-1
aF59.86133862
aF1.0
aF2.0
aI3
aI2
aF2.0
aF3.0
aI0
aF27.0
aF58.0
aa(lp130
I0
aF0.668021155
aF0.799521331
aI-1
aF62.98554478
aF2.0
aF3.0
aI2
aI3
aF0.0
aF3.0
aI1
aF43.0
aF43.0
aa(lp131
I0
aF0.646736605
aF0.673963383
aI0
aF64.34309699
aF2.0
aF3.0
aI4
aI3
aF3.0
aF1.0
aI0
aF23.0
aF59.0
aa(lp132
I1
aF0.399532748
aF0.786785188
aI1
aF57.97225447
aF2.0
aF1.0
aI2
aI4
aF-1.0
aF3.0
aI1
aF38.0
aF65.0
aa(lp133
I1
aF0.857134222
aF0.783524772
aI0
aF75.7926089
aF4.0
aF1.0
aI3
aI1
aF3.0
aF1.0
aI0
aF66.0
aF71.0
aa(lp134
I1
aF0.519068017
aF0.599928869
aI0
aNaF2.0
aF1.0
aI1
aI1
aF1.0
aF2.0
aI0
aF42.0
aF48.0
aa(lp135
I0
aF0.64108728
aF0.611280938
aNaF64.70480071
aNaF2.0
aI1
aI1
aF4.0
aF4.0
aI0
aF41.0
aNaa(lp136
I1
aF0.270170523
aF0.208758923
aI1
aF58.82392859
aNaNaI5
aI1
aF1.0
aF2.0
aI0
aF56.0
aF76.0
aa(lp137
I0
aF0.572571324
aF0.876661318
aI0
aF63.93723416
aF0.0
aF1.0
aI2
aI2
aF2.0
aF1.0
aI1
aNaF89.0
aa(lp138
I0
aF0.586146542
aF0.284869314
aI0
aF67.1297111
aF3.0
aF2.0
aI5
aI2
aF0.0
aF3.0
aNaF36.0
aF61.0
aa(lp139
I0
aF0.667365508
aF0.459244575
aI-1
aF71.9248163
aF0.0
aF1.0
aI2
aI1
aF2.0
aF5.0
aI0
aF23.0
aF54.0
aa(lp140
I1
aF0.503002543
aF0.569705353
aI1
aF65.7181732
aF4.0
aF1.0
aI3
aI1
aF4.0
aF4.0
aI0
aF17.0
aF28.0
aa(lp141
I0
aF0.403202221
aNaI0
aF71.14459029
aF1.0
aF3.0
aI2
aI3
aNaF2.0
aI0
aF45.0
aF62.0
aa(lp142
I1
aF0.306157544
aF0.429063852
aI-1
aF55.38745818
aF3.0
aF2.0
aI2
aI4
aF1.0
aF3.0
aNaF17.0
aF23.0
aa(lp143
I1
aF0.571507392
aF0.653151605
aI-1
aF68.91149537
aF1.0
aF3.0
aI3
aI3
aF3.0
aF3.0
aI1
aF67.0
aF36.0
aa(lp144
I1
aF0.334374893
aF0.351128773
aI0
aF75.35990315
aNaF1.0
aI5
aI1
aF1.0
aNaI1
aF43.0
aF49.0
aa(lp145
I0
aF0.030215699
aF0.559703072
aI1
aF66.54131013
aF0.0
aF1.0
aI1
aI3
aF3.0
aF2.0
aI1
aF48.0
aF57.0
aa(lp146
I1
aF0.45686711
aF0.586728311
aI0
aF77.29337736
aF2.0
aNaI5
aI1
aF2.0
aF3.0
aI1
aF77.0
aF42.0
aa(lp147
I0
aF0.18787963
aF0.478512445
aI1
aF55.47325083
aF1.0
aF2.0
aI5
aI2
aF3.0
aF3.0
aI1
aF17.0
aF28.0
aa(lp148
I1
aF0.374288936
aF0.554859119
aI0
aNaF1.0
aF0.0
aI1
aI2
aF2.0
aF3.0
aI0
aF17.0
aF40.0
aa(lp149
I1
aF0.222095665
aF0.641323724
aI0
aF54.650435
aF3.0
aF-1.0
aI5
aI1
aF3.0
aF2.0
aI0
aF59.0
aNaa(lp150
I1
aF0.454859767
aF0.53981759
aI-1
aF55.85540858
aNaF0.0
aI2
aI1
aF2.0
aF2.0
aI1
aF40.0
aF44.0
aa(lp151
I1
aF0.570379421
aF0.303346729
aI0
aF50.19845549
aF2.0
aF2.0
aI3
aI2
aF1.0
aF4.0
aI1
aF27.0
aF7.0
aa(lp152
I0
aF0.5973447
aF0.773000768
aI-1
aF71.88799326
aF0.0
aF1.0
aI4
aI1
aF2.0
aNaI0
aF55.0
aF61.0
aa(lp153
I0
aF0.768189401
aF0.01448616
aI-1
aF52.43404252
aNaF0.0
aI3
aI4
aF3.0
aF1.0
aI0
aF81.0
aF48.0
aa(lp154
I1
aF0.598198679
aF0.558226502
aI-1
aF58.68445716
aF1.0
aF0.0
aI3
aI1
aF1.0
aF2.0
aNaF69.0
aF49.0
aa(lp155
I1
aF0.602133169
aF0.489303528
aI1
aF55.63424277
aF2.0
aF2.0
aI2
aI5
aF1.0
aF4.0
aI1
aF56.0
aNaa(lp156
I1
aNaF0.849158994
aI-1
aF58.15294509
aF2.0
aF0.0
aI3
aI4
aF2.0
aF1.0
aI0
aF34.0
aF57.0
aa(lp157
I1
aF0.617706374
aF1.033995639
aI-1
aF64.84674457
aF3.0
aF1.0
aI5
aI2
aNaF2.0
aI0
aF31.0
aF31.0
aa(lp158
I1
aF0.874498697
aF0.644695988
aI1
aF59.58442719
aF1.0
aF1.0
aI5
aI3
aF2.0
aNaI1
aNaNaa(lp159
I1
aF0.637474279
aF0.490556365
aI-1
aF54.68969928
aF2.0
aF2.0
aI3
aI1
aF2.0
aF3.0
aI1
aF28.0
aF40.0
aa(lp160
I1
aF0.757691427
aF0.44632666
aI-1
aF56.68852782
aF0.0
aF0.0
aI2
aI5
aF2.0
aF4.0
aI0
aF49.0
aNaa(lp161
I1
aF0.466783114
aF0.4505897
aI-1
aF55.83393476
aF3.0
aF1.0
aI1
aI4
aF2.0
aF4.0
aI1
aF58.0
aF65.0
aa(lp162
I0
aF0.761471808
aF0.499495783
aI1
aF66.58230551
aF0.0
aF2.0
aI3
aI5
aF4.0
aF2.0
aI1
aF38.0
aF33.0
aa(lp163
I0
aF0.506911725
aF0.441975189
aI-1
aF69.39607415
aF2.0
aF5.0
aNaI2
aNaF3.0
aI0
aF22.0
aF41.0
aa(lp164
I1
aF0.5350133
aF0.631564084
aI-1
aF68.95101751
aNaF1.0
aI2
aI3
aF4.0
aNaI1
aF61.0
aF59.0
aa(lp165
I1
aNaF0.307271009
aI1
aF62.38920569
aF1.0
aF0.0
aI1
aI4
aF5.0
aF2.0
aI1
aF39.0
aF60.0
aa(lp166
I1
aF0.459167742
aF0.298117403
aI-1
aF69.43630061
aF3.0
aF1.0
aI2
aI1
aF1.0
aF2.0
aI0
aF87.0
aF47.0
aa(lp167
I1
aF0.497749164
aNaI0
aF67.84954656
aF2.0
aF0.0
aI4
aI4
aF4.0
aF2.0
aI0
aF43.0
aF26.0
aa(lp168
I1
aF0.234735408
aF0.214639846
aI0
aF66.95147818
aF2.0
aF0.0
aI2
aI5
aF3.0
aF3.0
aI0
aF71.0
aF49.0
aa(lp169
I0
aF0.511176969
aNaI0
aF70.5659694
aF0.0
aF2.0
aI2
aNaF1.0
aF2.0
aI0
aF33.0
aF99.0
aa(lp170
I1
aF0.575407998
aF0.597984765
aI0
aF75.52380187
aNaF2.0
aI5
aI5
aF3.0
aF2.0
aI1
aF39.0
aF44.0
aa(lp171
I1
aF0.232676695
aF0.225951323
aI-1
aF61.90291583
aF1.0
aF1.0
aI4
aI3
aF2.0
aF2.0
aI1
aF65.0
aF73.0
aa(lp172
I1
aF0.7709365
aF0.757657665
aI-1
aF62.78787888
aF2.0
aF2.0
aI4
aI4
aF0.0
aF2.0
aI0
aF31.0
aF26.0
aa(lp173
I1
aF0.434778117
aF0.563868932
aI1
aF71.55353328
aF3.0
aF0.0
aI5
aI1
aF2.0
aF3.0
aI0
aF54.0
aF80.0
aa(lp174
I0
aF0.578821764
aF0.746264396
aI-1
aF67.57985812
aNaF3.0
aI1
aI3
aF4.0
aF3.0
aI0
aF43.0
aF48.0
aa(lp175
I1
aF0.571571607
aF1.139494962
aI1
aF59.61533227
aF1.0
aF4.0
aNaI4
aF3.0
aF3.0
aI1
aF51.0
aF23.0
aa(lp176
I1
aF0.253712371
aF0.437006506
aI-1
aF57.97615077
aF2.0
aF1.0
aI4
aNaF1.0
aF4.0
aI0
aF73.0
aF84.0
aa(lp177
I1
aF0.274421273
aF0.54212135
aI0
aF49.17280878
aF3.0
aF2.0
aI2
aI4
aF2.0
aF3.0
aI0
aF31.0
aF31.0
aa(lp178
I1
aF0.87152693
aF0.495957785
aI0
aF58.98747335
aF4.0
aF1.0
aI2
aI1
aF4.0
aF3.0
aI1
aF94.0
aF51.0
aa(lp179
I1
aF0.516945422
aF0.439498728
aI-1
aF65.1385289
aF3.0
aF3.0
aI5
aI2
aF3.0
aF2.0
aI0
aF50.0
aF71.0
aa(lp180
I1
aF0.285553195
aF0.256057213
aI0
aF73.32914516
aF3.0
aF2.0
aI1
aI1
aF3.0
aF3.0
aI1
aF79.0
aF38.0
aa(lp181
I1
aF0.37674996
aF0.559095051
aI-1
aF76.40084523
aF2.0
aF1.0
aI2
aI5
aF0.0
aF3.0
aI1
aF58.0
aF58.0
aa(lp182
I0
aF0.524502835
aF0.379482791
aNaF57.91284556
aF1.0
aF2.0
aI5
aI2
aF2.0
aF4.0
aI1
aF2.0
aF62.0
aa(lp183
I1
aF0.558833934
aF0.451761095
aI0
aNaF2.0
aF2.0
aI2
aI4
aF3.0
aF1.0
aNaF65.0
aF85.0
aa(lp184
I1
aF0.432748096
aF0.618432973
aNaF74.72680274
aF-1.0
aF2.0
aI1
aI5
aF3.0
aF3.0
aI0
aF-7.0
aF33.0
aa(lp185
I1
aF0.389633629
aF0.31714411
aI-1
aF66.28425161
aF2.0
aF0.0
aI1
aI3
aF3.0
aF4.0
aI0
aF35.0
aF79.0
aa(lp186
I0
aF0.582378432
aF0.97264808
aI0
aF79.76347252
aF2.0
aF3.0
aNaI1
aF2.0
aF3.0
aNaF72.0
aF82.0
aa(lp187
I0
aF0.723284716
aF0.517247175
aI-1
aF55.37303149
aF1.0
aF3.0
aNaI1
aF2.0
aF2.0
aI1
aNaF60.0
aa(lp188
I1
aF0.371949325
aF0.485719791
aI-1
aF77.61978585
aF2.0
aF2.0
aI1
aI1
aF4.0
aF2.0
aI1
aNaF46.0
aa(lp189
I1
aF0.35350424
aF0.561113851
aI1
aF60.41813131
aF1.0
aF1.0
aNaI3
aF2.0
aF3.0
aI1
aF29.0
aNaa(lp190
I0
aF0.38938076
aNaI0
aF55.44190516
aF2.0
aF3.0
aI3
aI5
aF4.0
aF3.0
aI0
aF52.0
aF59.0
aa(lp191
I0
aF0.143875418
aF0.495428937
aI-1
aF73.45186325
aF0.0
aF1.0
aI4
aI4
aF3.0
aNaI0
aF41.0
aF61.0
aa(lp192
I1
aF0.387936625
aF0.40890086
aI0
aF48.54525827
aF1.0
aF0.0
aI3
aI4
aF0.0
aF4.0
aNaF55.0
aF51.0
aa(lp193
I1
aF0.467362289
aF0.447619864
aI1
aF55.8829047
aF2.0
aF1.0
aI2
aI5
aF3.0
aF3.0
aI0
aNaF36.0
aa(lp194
I1
aF0.528282169
aF0.664037025
aI-1
aF70.80263246
aF1.0
aF0.0
aI3
aI1
aF3.0
aF3.0
aI1
aF63.0
aF21.0
aa(lp195
I0
aF0.366571061
aF0.017852798
aI0
aF65.66389977
aF0.0
aF1.0
aI2
aI2
aF2.0
aF4.0
aI0
aF18.0
aF38.0
aa(lp196
I1
aF0.577518159
aF0.321663413
aI1
aF65.85050973
aF2.0
aF1.0
aI5
aI4
aF3.0
aF5.0
aI0
aF58.0
aNaa(lp197
I1
aF0.466745719
aF0.573109902
aI1
aF65.3984355
aF2.0
aF2.0
aI4
aI2
aF2.0
aF3.0
aI0
aF44.0
aF50.0
aa(lp198
I1
aF0.158499376
aF0.418930873
aI1
aF60.11228555
aF3.0
aF1.0
aI3
aI4
aF3.0
aNaI1
aF32.0
aF63.0
aa(lp199
I1
aF0.551158009
aNaI-1
aF68.63300093
aF1.0
aF2.0
aI1
aI3
aF2.0
aF3.0
aI1
aF58.0
aF33.0
aa(lp200
I1
aF0.524650239
aF0.226017184
aI-1
aF64.54655802
aF3.0
aNaI2
aNaF1.0
aF2.0
aI0
aF50.0
aF47.0
aa(lp201
I1
aF0.947967379
aF0.562873277
aI-1
aF61.28271573
aF1.0
aF2.0
aI4
aI1
aF3.0
aF3.0
aI1
aF84.0
aF31.0
aa(lp202
I1
aF0.568774662
aF0.786451135
aI1
aF61.68729045
aF2.0
aF1.0
aI2
aI3
aF3.0
aF2.0
aI1
aNaF38.0
aa(lp203
I1
aF0.571107271
aF0.635337322
aI0
aF68.78850292
aF2.0
aF2.0
aI4
aI3
aF2.0
aF1.0
aI1
aNaF56.0
aa(lp204
I0
aF0.459023211
aF0.420506901
aI0
aF67.99212546
aF1.0
aF2.0
aI4
aI3
aF3.0
aF2.0
aI1
aF68.0
aNaa(lp205
I1
aF0.704126345
aF0.2862415
aI1
aF50.45984473
aF2.0
aF1.0
aI1
aI4
aF4.0
aF2.0
aI0
aF79.0
aF14.0
aa(lp206
I1
aF0.634990823
aF0.496408622
aI0
aF60.30900666
aF4.0
aF1.0
aI2
aI1
aF2.0
aF1.0
aI0
aF12.0
aF61.0
aa(lp207
I0
aF0.47993664
aF0.462357003
aI-1
aF57.13831071
aF0.0
aF2.0
aI1
aI4
aF2.0
aF3.0
aI0
aF32.0
aF45.0
aa(lp208
I1
aF0.719697524
aF0.420819108
aI0
aF59.23183621
aF2.0
aF2.0
aI4
aI1
aF2.0
aF2.0
aI0
aF57.0
aF36.0
aa(lp209
I1
aF0.321208235
aF0.738384454
aI-1
aF64.88121472
aF3.0
aF2.0
aI1
aI5
aF2.0
aF2.0
aI1
aF62.0
aF96.0
aa(lp210
I0
aNaF0.426422283
aI-1
aF70.93702391
aF0.0
aF1.0
aI4
aI1
aF2.0
aF1.0
aI1
aF21.0
aF43.0
aa(lp211
I1
aF0.495459767
aF0.480098065
aI1
aF61.19647916
aF1.0
aF1.0
aI1
aI2
aF1.0
aF4.0
aI1
aF55.0
aF45.0
aa(lp212
I1
aF0.000262963
aF0.618191016
aI1
aF72.50529837
aF1.0
aF1.0
aI3
aI4
aF1.0
aF4.0
aI1
aF42.0
aF31.0
aa(lp213
I1
aF0.520915247
aF1.073085034
aI1
aF63.36840842
aNaF1.0
aI2
aI4
aF3.0
aF0.0
aI0
aF71.0
aF41.0
aa(lp214
I0
aF0.440913386
aF0.225092668
aI0
aF67.93823257
aF0.0
aF2.0
aI1
aI1
aF3.0
aF0.0
aI1
aF62.0
aF52.0
aa(lp215
I1
aF0.543314223
aF0.499582777
aI-1
aF61.11055126
aF1.0
aF0.0
aI3
aI1
aF3.0
aF1.0
aI1
aF74.0
aF50.0
aa(lp216
I1
aF0.67826018
aF0.475764842
aI0
aNaF2.0
aF2.0
aI4
aI1
aF4.0
aF1.0
aI1
aF47.0
aF71.0
aa(lp217
I0
aF0.407748155
aF0.627890927
aI-1
aF62.86951042
aNaF2.0
aI2
aI3
aF1.0
aF2.0
aI1
aF49.0
aF39.0
aa(lp218
I1
aF0.263572378
aF0.170112074
aI-1
aF59.82938031
aF3.0
aF-1.0
aI2
aI3
aF1.0
aF2.0
aI1
aF38.0
aF42.0
aa(lp219
I1
aF0.198115776
aF0.415839398
aI-1
aF54.25425621
aF0.0
aF0.0
aI2
aI3
aF4.0
aF2.0
aI1
aF36.0
aF87.0
aa(lp220
I1
aF0.198171574
aF0.65089505
aI1
aF72.37552156
aF3.0
aF2.0
aI1
aI4
aF2.0
aF3.0
aI1
aF48.0
aF38.0
aa(lp221
I0
aF0.710696393
aNaI0
aF64.73466257
aF0.0
aNaI4
aI5
aF2.0
aF2.0
aI1
aF46.0
aF55.0
aa(lp222
I0
aF0.374782148
aF0.399937697
aI0
aF71.42047104
aF2.0
aF3.0
aI3
aI5
aF1.0
aF3.0
aI1
aF120.0
aF68.0
aa(lp223
I1
aF0.639103844
aF0.669199095
aI1
aF65.576332
aF1.0
aF2.0
aI1
aI2
aF2.0
aF2.0
aI0
aF43.0
aF7.0
aa(lp224
I0
aF0.163999439
aF0.598565927
aI0
aF55.39434419
aF0.0
aF1.0
aI2
aI4
aF1.0
aF3.0
aI1
aF51.0
aF69.0
aa(lp225
I1
aF0.078265759
aF0.606754248
aI-1
aF62.91782945
aF2.0
aF1.0
aI1
aI2
aF2.0
aF2.0
aI0
aF52.0
aF46.0
aa(lp226
I0
aF0.491264919
aF0.44236525
aNaF77.44908608
aF1.0
aF2.0
aI1
aI2
aF4.0
aF2.0
aI0
aF55.0
aF51.0
aa(lp227
I1
aF0.637149476
aF0.590554512
aI0
aF61.4961911
aF2.0
aF2.0
aI1
aI5
aF2.0
aF2.0
aI1
aF39.0
aF41.0
aa(lp228
I1
aF0.603900812
aF0.522993428
aI0
aF71.11560816
aF1.0
aF0.0
aI1
aI1
aF3.0
aF2.0
aI1
aF19.0
aF59.0
aa(lp229
I1
aF0.708842091
aF0.562247435
aI-1
aF62.67534979
aF1.0
aF1.0
aI1
aI5
aF3.0
aF2.0
aI1
aF31.0
aF18.0
aa(lp230
I1
aF0.461945053
aF0.837021413
aI-1
aF64.21086878
aF2.0
aF1.0
aI5
aI5
aF3.0
aF2.0
aI1
aF33.0
aF20.0
aa(lp231
I1
aF0.540251249
aF0.482567275
aNaF59.89023859
aF2.0
aF2.0
aNaI1
aF3.0
aF3.0
aI0
aF29.0
aF52.0
aa(lp232
I1
aF0.673281817
aF0.601684679
aI-1
aF62.25931123
aF2.0
aNaI1
aI3
aF2.0
aF2.0
aI1
aF39.0
aF47.0
aa(lp233
I0
aF0.54032778
aF0.189397841
aI0
aF67.40465362
aF1.0
aF-1.0
aI4
aI3
aF2.0
aNaI1
aF41.0
aF45.0
aa(lp234
I1
aF0.572237331
aF0.757230222
aI0
aF68.03254884
aF1.0
aF1.0
aI4
aI2
aF2.0
aF4.0
aI1
aF47.0
aF52.0
aa(lp235
I1
aF0.521299567
aF0.272678215
aI-1
aF65.62730423
aF1.0
aF0.0
aI5
aI5
aNaF2.0
aI1
aF40.0
aF27.0
aa(lp236
I1
aF0.85832886
aF0.576821486
aI0
aF66.66422937
aF2.0
aF2.0
aI5
aI5
aF2.0
aF1.0
aI1
aF53.0
aF42.0
aa(lp237
I1
aF0.492293766
aF0.455534313
aI1
aF56.88971368
aF2.0
aF1.0
aI3
aI3
aF1.0
aF3.0
aI0
aF-5.0
aF54.0
aa(lp238
I1
aF0.865809462
aF0.725703104
aI0
aF58.42246112
aF2.0
aF2.0
aI5
aI4
aF4.0
aF3.0
aI0
aF57.0
aF49.0
aa(lp239
I0
aF0.647916275
aF0.643641627
aI0
aF68.7420465
aF1.0
aF2.0
aI1
aI2
aF2.0
aF2.0
aI0
aF31.0
aF69.0
aa(lp240
I0
aF0.411788105
aF0.342990572
aI0
aF76.29507351
aF1.0
aF2.0
aI5
aI4
aF2.0
aF2.0
aI1
aF25.0
aF53.0
aa(lp241
I0
aF0.412595436
aF0.373626598
aI0
aF60.59762973
aF1.0
aF2.0
aI3
aI2
aF2.0
aF3.0
aI1
aF80.0
aF57.0
aa(lp242
I1
aF0.135662887
aF0.305440482
aI1
aF70.49199509
aF1.0
aF-1.0
aI2
aI4
aF0.0
aF1.0
aI0
aF78.0
aF41.0
aa(lp243
I0
aF0.356716134
aF0.527894223
aI-1
aF56.73321395
aF2.0
aNaI1
aI2
aF4.0
aF4.0
aI0
aF61.0
aF99.0
aa(lp244
I1
aNaF0.551528016
aI-1
aF72.84385028
aF2.0
aF2.0
aI1
aI4
aF3.0
aF3.0
aI0
aF40.0
aF42.0
aa(lp245
I0
aNaF0.556191893
aI0
aF57.49047717
aNaF2.0
aI5
aI5
aF3.0
aF3.0
aI1
aF50.0
aF87.0
aa(lp246
I1
aF0.646784052
aF0.730471235
aI1
aF72.79998161
aF2.0
aF1.0
aNaI5
aF4.0
aF4.0
aI1
aF60.0
aF35.0
aa(lp247
I0
aF0.267848253
aF0.539441887
aI1
aF61.4667959
aF1.0
aF2.0
aI4
aI4
aF1.0
aF4.0
aI1
aF17.0
aF50.0
aa(lp248
I1
aF0.668123525
aF0.749673822
aI1
aF78.92503534
aF2.0
aF1.0
aI2
aI3
aF1.0
aF1.0
aI1
aF56.0
aF35.0
aa(lp249
I0
aF0.517946987
aF0.390780738
aI0
aF53.92687539
aF2.0
aF3.0
aI1
aI1
aF-1.0
aF4.0
aI0
aF35.0
aF83.0
aa(lp250
I0
aF0.780840922
aF0.348242212
aI-1
aNaF3.0
aF2.0
aI2
aI5
aF2.0
aF2.0
aI0
aNaF53.0
aa(lp251
I0
aF0.435688905
aF0.352933653
aI1
aF63.46977312
aF2.0
aF4.0
aI3
aI3
aNaF3.0
aI1
aF40.0
aF66.0
aa(lp252
I1
aF0.238672911
aF0.616634514
aI-1
aF56.85383982
aNaF2.0
aI5
aI2
aF1.0
aF3.0
aI1
aF74.0
aF64.0
aa(lp253
I1
aF0.37520559
aF0.59803251
aI-1
aF68.62503902
aF2.0
aF2.0
aI3
aI1
aF3.0
aF2.0
aI1
aF63.0
aF72.0
aa(lp254
I1
aF0.670726217
aF0.71982103
aI0
aF61.68903273
aNaF0.0
aI5
aI1
aF3.0
aF3.0
aNaF40.0
aF31.0
aa(lp255
I1
aF0.211721111
aF0.683569114
aI1
aF54.47355175
aF2.0
aF1.0
aI4
aI4
aF2.0
aF4.0
aNaF64.0
aF25.0
aa(lp256
I0
aF0.708997759
aF0.273653653
aI0
aF67.68493781
aF1.0
aF3.0
aI2
aI5
aF2.0
aF4.0
aI0
aF33.0
aF68.0
aa(lp257
I1
aF0.610518457
aF0.696132101
aI0
aF74.7636189
aNaF0.0
aNaI5
aF2.0
aF1.0
aI0
aF18.0
aF30.0
aa(lp258
I1
aF0.567749456
aF0.649507471
aI0
aF68.61504178
aF2.0
aF2.0
aI2
aI1
aF1.0
aF1.0
aI1
aF53.0
aF54.0
aa(lp259
I0
aF0.155741849
aF0.431435236
aI-1
aF64.18371766
aF1.0
aF2.0
aI1
aI1
aF4.0
aF2.0
aI1
aF62.0
aF69.0
aa(lp260
I0
aF0.468818812
aF0.662634629
aI0
aF66.91320171
aF1.0
aF2.0
aI3
aI5
aF2.0
aF4.0
aI1
aNaF50.0
aa(lp261
I0
aF0.441532318
aF0.54733114
aI1
aF55.91310655
aF0.0
aF3.0
aI1
aI5
aF2.0
aF2.0
aI1
aF49.0
aF47.0
aa(lp262
I1
aF0.587024988
aF0.303673531
aI0
aF70.54528153
aF1.0
aNaI1
aI5
aF2.0
aF2.0
aI1
aF50.0
aF-8.0
aa(lp263
I1
aNaF0.352888555
aI-1
aF63.37474863
aF3.0
aF3.0
aI3
aI3
aF1.0
aF3.0
aI1
aF93.0
aF46.0
aa(lp264
I1
aF0.723472924
aF0.444065785
aI-1
aF73.32210543
aF2.0
aF1.0
aI5
aI2
aF4.0
aF3.0
aI0
aF67.0
aF51.0
aa(lp265
I1
aF0.272986533
aF0.511915523
aI-1
aF79.61268793
aF2.0
aF2.0
aI4
aI2
aF3.0
aF2.0
aI1
aF36.0
aF73.0
aa(lp266
I0
aF0.392644399
aF0.478464589
aI0
aF73.44708479
aF0.0
aF1.0
aI3
aI1
aF3.0
aF0.0
aI1
aF53.0
aF79.0
aa(lp267
I1
aF0.428476007
aF0.815575086
aI0
aF58.7552402
aF0.0
aF0.0
aI1
aI4
aF4.0
aF3.0
aI0
aF71.0
aF75.0
aa(lp268
I1
aF1.008766837
aF0.901856623
aI-1
aF74.61688456
aF3.0
aF2.0
aI3
aI1
aF3.0
aF2.0
aI0
aF47.0
aF47.0
aa(lp269
I0
aF0.472851744
aF0.160624817
aI1
aF70.81354876
aF-1.0
aF2.0
aI3
aI2
aF2.0
aF1.0
aI0
aF45.0
aF63.0
aa(lp270
I1
aF0.443060668
aNaI-1
aF69.09836519
aF4.0
aF2.0
aI1
aI3
aF2.0
aF3.0
aI0
aF27.0
aF29.0
aa(lp271
I1
aF0.391943051
aF0.781632667
aI-1
aF53.97211282
aF0.0
aF3.0
aI3
aI3
aF4.0
aF2.0
aI1
aF66.0
aF16.0
aa(lp272
I0
aF0.668075742
aF0.511410347
aI1
aF66.2444588
aF2.0
aF3.0
aI4
aI1
aNaF3.0
aI1
aF36.0
aF64.0
aa(lp273
I1
aF0.620890801
aF0.524489726
aI0
aF60.60409015
aF3.0
aF2.0
aI2
aI4
aF3.0
aF2.0
aI0
aF51.0
aNaa(lp274
I1
aF0.095098542
aF0.601851542
aI1
aF62.97603908
aF1.0
aF1.0
aI2
aI3
aF4.0
aF4.0
aI0
aF13.0
aF58.0
aa(lp275
I0
aNaF0.410536904
aI-1
aF63.89987233
aF0.0
aF1.0
aI2
aI2
aF2.0
aF4.0
aI0
aF38.0
aF30.0
aa(lp276
I1
aF0.245145287
aF0.710242469
aI1
aF77.46552938
aF1.0
aF1.0
aI1
aI2
aF1.0
aF1.0
aI1
aF50.0
aF49.0
aa(lp277
I0
aF0.674776871
aF0.189140529
aI1
aF62.29258142
aNaF1.0
aI5
aI1
aF2.0
aF2.0
aI0
aF54.0
aF34.0
aa(lp278
I1
aF0.478054305
aF0.387738909
aI0
aF64.64395271
aF2.0
aF2.0
aI3
aI1
aF2.0
aF1.0
aI1
aF30.0
aF37.0
aa(lp279
I1
aF0.634710394
aF0.648839347
aI1
aF57.49779569
aF2.0
aNaI3
aI4
aF2.0
aF2.0
aI0
aF33.0
aF78.0
aa(lp280
I0
aF0.778166129
aF0.379924521
aI0
aF66.06308716
aNaF3.0
aI4
aI2
aF5.0
aF4.0
aI1
aF24.0
aF70.0
aa(lp281
I0
aF0.858143309
aF0.410443975
aI1
aF64.13403489
aF2.0
aF2.0
aI5
aI2
aF4.0
aF2.0
aI1
aF41.0
aF97.0
aa(lp282
I1
aF0.533343807
aF0.64396802
aI1
aF59.04226225
aF1.0
aF1.0
aI5
aI1
aF2.0
aF3.0
aI0
aF20.0
aF39.0
aa(lp283
I1
aF0.655961652
aF0.686270613
aNaF73.00543887
aF2.0
aF1.0
aI1
aI4
aF4.0
aF3.0
aI1
aF43.0
aF68.0
aa(lp284
I1
aF0.322737133
aF0.531674175
aI0
aNaF4.0
aF1.0
aI3
aNaF1.0
aF3.0
aI0
aF42.0
aF26.0
aa(lp285
I0
aF0.537513015
aF0.633136262
aI0
aF72.85207055
aF0.0
aF1.0
aI2
aI5
aF2.0
aF4.0
aI1
aF57.0
aF46.0
aa(lp286
I1
aF0.588066447
aF0.673993404
aI1
aF66.95507387
aF1.0
aF1.0
aI3
aI1
aF4.0
aF2.0
aI0
aF17.0
aF78.0
aa(lp287
I0
aF0.515360231
aF0.792711033
aI1
aF55.91277365
aF1.0
aF3.0
aI4
aI3
aF3.0
aF3.0
aI1
aF41.0
aF45.0
aa(lp288
I0
aF0.515102577
aF0.006858342
aI-1
aF54.51494647
aF0.0
aF0.0
aI2
aI5
aF3.0
aF2.0
aI0
aF40.0
aF48.0
aa(lp289
I0
aF0.187902091
aF0.860704122
aI0
aF77.40201889
aF1.0
aF1.0
aI5
aI1
aF2.0
aF2.0
aI1
aF-2.0
aF74.0
aa(lp290
I0
aF0.63860038
aF0.259962827
aI0
aNaF2.0
aF2.0
aI3
aI1
aF3.0
aF3.0
aI1
aF9.0
aF69.0
aa(lp291
I0
aF0.475430382
aNaI1
aF59.66452574
aF2.0
aF3.0
aI4
aI3
aF1.0
aF3.0
aI0
aF17.0
aF22.0
aa(lp292
I0
aF0.598802498
aF0.220993837
aNaF72.897693
aF0.0
aF2.0
aI3
aI1
aF3.0
aF2.0
aI1
aF44.0
aF48.0
aa(lp293
I0
aF0.340718656
aF0.50283491
aI1
aF66.79470403
aF2.0
aF3.0
aI1
aI1
aF1.0
aF1.0
aI1
aF19.0
aF60.0
aa(lp294
I0
aF0.457242033
aF0.276909429
aI0
aF67.15476378
aF3.0
aF0.0
aI3
aI2
aF2.0
aF1.0
aI1
aF0.0
aF13.0
aa(lp295
I1
aF0.371838146
aF0.511600798
aI1
aF73.07728343
aF2.0
aF1.0
aI3
aI3
aF3.0
aF2.0
aI1
aF31.0
aF60.0
aa(lp296
I0
aF0.572003951
aNaI-1
aF69.58475952
aF1.0
aF3.0
aI5
aI2
aF3.0
aF1.0
aI1
aF83.0
aF75.0
aa(lp297
I0
aF0.563224725
aNaI1
aF63.65201025
aNaF3.0
aI2
aI4
aF2.0
aF3.0
aI1
aF51.0
aF55.0
aa(lp298
I1
aF0.12621905
aF0.761594123
aI-1
aF67.38907586
aF3.0
aF0.0
aI4
aI3
aF3.0
aF2.0
aNaF88.0
aF8.0
aa(lp299
I1
aF0.399051396
aF0.399638694
aI-1
aF69.92601764
aF2.0
aF0.0
aI4
aI1
aF3.0
aF2.0
aI1
aF38.0
aF38.0
aa(lp300
I1
aNaF0.386195954
aI0
aF61.48890583
aF2.0
aF1.0
aI5
aI3
aF4.0
aF2.0
aI0
aF37.0
aF61.0
aa(lp301
I0
aF0.336527754
aF0.533985225
aI-1
aF63.73173826
aF-1.0
aF1.0
aNaI4
aF3.0
aF2.0
aI1
aF50.0
aF44.0
aa(lp302
I0
aF0.345529832
aF0.369323227
aI0
aF61.64046534
aF0.0
aF4.0
aI3
aI3
aF3.0
aF3.0
aI1
aF21.0
aF25.0
aa(lp303
I1
aF0.394724091
aF0.290041915
aI-1
aF77.6394016
aF1.0
aF1.0
aI2
aI2
aF3.0
aF2.0
aI0
aF67.0
aF54.0
aa(lp304
I1
aF0.420046544
aF0.42504226
aI-1
aF71.49813272
aF1.0
aF1.0
aI1
aI2
aF1.0
aNaI0
aF29.0
aF63.0
aa(lp305
I1
aF0.535607732
aF0.333470089
aI-1
aF63.53939137
aF1.0
aF1.0
aI4
aI5
aF4.0
aF1.0
aI0
aF49.0
aF90.0
aa(lp306
I0
aF0.645360765
aF0.609421929
aI0
aF50.97953819
aF1.0
aF2.0
aI1
aI4
aF2.0
aF3.0
aI0
aF31.0
aF37.0
aa(lp307
I1
aF0.54615142
aF0.620030873
aNaF62.32962063
aF2.0
aF1.0
aI4
aI4
aF4.0
aF3.0
aNaF63.0
aF24.0
aa(lp308
I1
aF0.476218701
aF0.414825057
aI0
aF71.89048564
aF3.0
aF0.0
aI4
aI4
aF2.0
aF2.0
aI0
aF60.0
aF70.0
aa(lp309
I0
aF0.162422845
aF0.510760194
aI1
aF67.97888225
aF0.0
aF2.0
aI2
aI5
aF3.0
aF3.0
aI1
aF50.0
aF47.0
aa(lp310
I0
aF0.062953832
aF0.516282051
aI-1
aF56.27670263
aF1.0
aF4.0
aI2
aNaF3.0
aF2.0
aI0
aF18.0
aF37.0
aa(lp311
I1
aF0.615868966
aF0.371938226
aI-1
aF80.68683857
aF3.0
aF3.0
aI5
aI3
aF3.0
aF2.0
aNaF68.0
aF62.0
aa(lp312
I0
aF0.686337272
aNaI1
aF73.89686852
aF1.0
aF2.0
aI1
aI4
aF2.0
aF3.0
aI1
aF70.0
aF53.0
aa(lp313
I1
aF0.748522538
aF0.403300432
aI-1
aF64.90366239
aF2.0
aF-1.0
aI4
aI3
aNaF2.0
aI1
aF56.0
aF45.0
aa(lp314
I1
aNaF0.331433517
aI-1
aF70.0195526
aF2.0
aF0.0
aI3
aI3
aF3.0
aF2.0
aI1
aF37.0
aF62.0
aa(lp315
I1
aF0.525209187
aF0.745469569
aI0
aF64.61997034
aF1.0
aF1.0
aI5
aI4
aF3.0
aF2.0
aI1
aF73.0
aF19.0
aa(lp316
I0
aF0.48487477
aF0.095646265
aI0
aF61.08638072
aF-1.0
aF1.0
aI3
aI3
aF2.0
aF1.0
aI1
aF59.0
aNaa(lp317
I0
aF0.373951324
aF0.750581013
aI-1
aF61.88947375
aF0.0
aF2.0
aNaI5
aF2.0
aF3.0
aI0
aF83.0
aF57.0
aa(lp318
I1
aF0.745391544
aF0.65314761
aI1
aF54.08869753
aF2.0
aF0.0
aI4
aI2
aF2.0
aF2.0
aI0
aF49.0
aF31.0
aa(lp319
I0
aF0.389979517
aF0.858468183
aI0
aF70.31045875
aF0.0
aF2.0
aI4
aI1
aF4.0
aF2.0
aI0
aF20.0
aF38.0
aa(lp320
I1
aF0.639586639
aF0.75508225
aI1
aF66.03644152
aF4.0
aF2.0
aI1
aI2
aF3.0
aF4.0
aI1
aF89.0
aF-6.0
aa(lp321
I1
aF0.35449662
aF0.656740583
aI-1
aF65.14105148
aF1.0
aF3.0
aI3
aI3
aF3.0
aF0.0
aI1
aF45.0
aF28.0
aa(lp322
I1
aNaF0.514446608
aI0
aF53.89696499
aF3.0
aF3.0
aI5
aI1
aF3.0
aF3.0
aI1
aF79.0
aF44.0
aa(lp323
I1
aF0.538918162
aF0.397062257
aI-1
aF63.55910792
aF3.0
aF1.0
aI2
aI3
aF2.0
aF3.0
aI1
aF27.0
aNaa(lp324
I1
aF0.231583799
aF0.305026207
aI0
aF61.82153272
aF1.0
aF1.0
aI4
aI3
aF3.0
aF2.0
aI0
aF39.0
aF48.0
aa(lp325
I1
aF0.634192442
aF0.855230767
aI0
aF66.37860884
aF1.0
aF2.0
aI1
aI4
aF3.0
aF2.0
aI1
aNaF13.0
aa(lp326
I1
aF0.662867794
aF0.765208734
aI1
aF63.4805284
aF2.0
aF1.0
aI1
aNaF1.0
aF3.0
aI0
aF60.0
aF19.0
aa(lp327
I0
aF0.833795445
aF0.137305115
aI-1
aF74.05540095
aF1.0
aF3.0
aI3
aI3
aF4.0
aF3.0
aI0
aF63.0
aF32.0
aa(lp328
I0
aF0.497295472
aF0.471194895
aI1
aF66.39447214
aF1.0
aF2.0
aI1
aI2
aF2.0
aF1.0
aI1
aNaF43.0
aa(lp329
I0
aF0.343896819
aF0.322671944
aI1
aF59.48326955
aF1.0
aF2.0
aI3
aI1
aF4.0
aF3.0
aI0
aF44.0
aF43.0
aa(lp330
I0
aF0.385255399
aF0.468372196
aI1
aF65.78929565
aF1.0
aF3.0
aI2
aI4
aF2.0
aF2.0
aI0
aF64.0
aF106.0
aa(lp331
I0
aF0.262824916
aF0.464046217
aI1
aF66.66158328
aF2.0
aF4.0
aI5
aI3
aF4.0
aNaI1
aF73.0
aF61.0
aa(lp332
I1
aF0.489078336
aF0.763683747
aI-1
aF61.78032661
aF4.0
aF1.0
aI4
aI5
aF4.0
aF2.0
aI0
aF64.0
aF68.0
aa(lp333
I1
aF0.49692474
aF0.354680623
aI-1
aF67.35120202
aF2.0
aF0.0
aI5
aI4
aF3.0
aF3.0
aI1
aF25.0
aF28.0
aa(lp334
I1
aF0.767944933
aF0.514159872
aI-1
aF62.97572956
aF2.0
aF2.0
aI3
aI4
aF2.0
aF1.0
aI1
aF28.0
aF52.0
aa(lp335
I1
aF0.772496213
aF0.684338657
aI1
aF74.16615819
aF2.0
aF1.0
aI4
aI1
aF2.0
aF2.0
aI0
aF19.0
aF46.0
aa(lp336
I0
aF0.924598134
aF0.852082056
aI-1
aNaF1.0
aF3.0
aI5
aI1
aNaF3.0
aI1
aF21.0
aF44.0
aa(lp337
I0
aF0.458593195
aF0.207010202
aI0
aF66.68985612
aF0.0
aF3.0
aI5
aI1
aF3.0
aF4.0
aI1
aF47.0
aF36.0
aa(lp338
I0
aF0.638897372
aF0.613628986
aI1
aF63.609428
aF1.0
aF2.0
aI1
aI3
aF4.0
aNaI1
aF66.0
aF67.0
aa(lp339
I1
aF0.499991526
aF0.562785333
aI0
aF49.12091883
aF2.0
aF1.0
aI1
aI2
aF1.0
aF1.0
aI1
aF82.0
aF56.0
aa(lp340
I0
aF0.696222392
aF0.757886102
aI-1
aF71.48701177
aF2.0
aF3.0
aI5
aI1
aF3.0
aF2.0
aI0
aF65.0
aF40.0
aa(lp341
I1
aF0.579549044
aF0.481688587
aI0
aF66.61745962
aF3.0
aF1.0
aI1
aI1
aF2.0
aNaI1
aF67.0
aF43.0
aa(lp342
I0
aF0.371978984
aF0.575459311
aI0
aF66.53298558
aF0.0
aF1.0
aI2
aI2
aF1.0
aF3.0
aI0
aF54.0
aF44.0
aa(lp343
I1
aF0.275807202
aF0.534206721
aI0
aF66.64995096
aF3.0
aF2.0
aI1
aI4
aF4.0
aF3.0
aI0
aF90.0
aF39.0
aa(lp344
I1
aF0.138170783
aF0.643920383
aI0
aF66.4185644
aNaF1.0
aI5
aI1
aF1.0
aF1.0
aI0
aF65.0
aF49.0
aa(lp345
I0
aF0.830036122
aF0.358018817
aI0
aF69.26732021
aF0.0
aF1.0
aI3
aI4
aF2.0
aF3.0
aNaNaF53.0
aa(lp346
I1
aNaF0.471323965
aI1
aF59.16524488
aF1.0
aF1.0
aI4
aI5
aF3.0
aF1.0
aI0
aF83.0
aF55.0
aa(lp347
I1
aF0.375039151
aF0.368917079
aI0
aF60.55636061
aF3.0
aF2.0
aI1
aI4
aNaF3.0
aI0
aF66.0
aF42.0
aa(lp348
I1
aF0.431724738
aF0.339238984
aI-1
aF66.37948275
aF3.0
aF2.0
aI1
aI5
aF1.0
aF1.0
aI1
aF71.0
aF59.0
aa(lp349
I1
aF0.256069037
aF0.581703999
aI-1
aNaF1.0
aF0.0
aI3
aI4
aF2.0
aF2.0
aNaF8.0
aF56.0
aa(lp350
I1
aF0.525479248
aF0.682867892
aI-1
aF70.32234756
aF1.0
aF1.0
aI2
aI3
aF2.0
aF2.0
aI0
aF40.0
aF56.0
aa(lp351
I1
aF0.35022891
aF0.455498412
aI0
aNaF1.0
aF1.0
aI2
aI2
aF3.0
aF3.0
aI1
aF43.0
aF17.0
aa(lp352
I1
aNaF0.159369389
aI1
aNaF1.0
aF3.0
aI1
aI4
aNaF3.0
aI0
aF113.0
aF23.0
aa(lp353
I0
aF0.528931736
aF0.634827394
aI0
aF76.74769009
aF1.0
aF2.0
aI5
aI1
aF4.0
aF3.0
aI1
aF52.0
aNaa(lp354
I1
aNaF0.421084657
aI0
aF57.68606359
aNaF2.0
aI5
aI1
aF4.0
aF2.0
aI1
aF30.0
aF75.0
aa(lp355
I1
aF0.230797214
aF0.633502657
aI1
aF60.43549821
aF1.0
aF2.0
aI2
aI1
aF5.0
aF2.0
aI1
aF88.0
aF19.0
aa(lp356
I1
aF0.647700403
aF0.646459351
aI-1
aF65.21806049
aF1.0
aF1.0
aI2
aI5
aF4.0
aF4.0
aI1
aF22.0
aF44.0
aa(lp357
I0
aF0.671792037
aF0.488030536
aI0
aF69.19096925
aF0.0
aF1.0
aI4
aI4
aF3.0
aF1.0
aI1
aF67.0
aNaa(lp358
I1
aF0.357585555
aF0.447903087
aI1
aF53.80601398
aF2.0
aF3.0
aI1
aI1
aF3.0
aF2.0
aI1
aF59.0
aF35.0
aa(lp359
I0
aF0.642154243
aF0.627899338
aI1
aF65.40908989
aF1.0
aF3.0
aI2
aI3
aF3.0
aF2.0
aI1
aF50.0
aF45.0
aa(lp360
I1
aF0.525806417
aNaI-1
aF52.89468607
aF1.0
aF1.0
aI2
aI5
aF2.0
aF3.0
aI1
aF34.0
aF55.0
aa(lp361
I1
aF0.820771423
aF0.918289112
aI1
aF51.1594016
aF2.0
aF1.0
aI3
aI4
aF2.0
aF2.0
aI0
aF81.0
aF47.0
aa(lp362
I1
aF0.668706607
aF0.503746437
aNaF62.66670959
aF2.0
aF1.0
aI4
aI1
aF3.0
aF2.0
aI0
aF51.0
aF64.0
aa(lp363
I0
aF0.990630655
aNaI0
aF63.29160484
aF3.0
aF2.0
aI5
aI3
aF3.0
aF3.0
aI0
aF31.0
aF25.0
aa(lp364
I1
aF0.39154466
aF0.695203837
aI1
aF53.22290983
aF2.0
aF2.0
aI2
aI1
aF3.0
aF2.0
aI1
aF65.0
aF44.0
aa(lp365
I1
aF0.500363015
aF0.659016242
aI0
aF72.228453
aF1.0
aF1.0
aI4
aI3
aF1.0
aF3.0
aI1
aF44.0
aF45.0
aa(lp366
I1
aF-0.000826523
aF0.479932381
aI-1
aF65.5717558
aF1.0
aF0.0
aI4
aI2
aF3.0
aF2.0
aI1
aF24.0
aF61.0
aa(lp367
I1
aF0.484408037
aF0.380644927
aNaF63.47806086
aF1.0
aF0.0
aI2
aNaF3.0
aF2.0
aI0
aF85.0
aF65.0
aa(lp368
I0
aF0.641422031
aNaI1
aF69.1806971
aF3.0
aF4.0
aI3
aI5
aF2.0
aF3.0
aI0
aF34.0
aF58.0
aa(lp369
I1
aF0.26626323
aF0.386125842
aI-1
aF57.91678859
aF2.0
aF1.0
aI4
aI3
aF3.0
aF3.0
aI0
aF71.0
aF42.0
aa(lp370
I1
aNaF0.548827813
aI1
aF60.51077387
aF2.0
aF2.0
aI3
aI3
aF1.0
aF4.0
aI0
aF94.0
aF77.0
aa(lp371
I1
aF0.561188324
aNaI-1
aF53.21064864
aNaF2.0
aI5
aI1
aF4.0
aF3.0
aI1
aF74.0
aF61.0
aa(lp372
I1
aF0.649204925
aF0.597018325
aI0
aF73.59728319
aF2.0
aF1.0
aI1
aI2
aF3.0
aF2.0
aI1
aF20.0
aF28.0
aa(lp373
I0
aF0.44300586
aF0.756545083
aI-1
aF71.75904256
aF1.0
aF3.0
aI3
aI3
aF2.0
aF2.0
aI1
aF9.0
aF56.0
aa(lp374
I1
aF0.474259587
aF0.281532929
aNaF60.59396257
aF3.0
aF2.0
aNaI3
aF2.0
aNaI0
aF53.0
aF20.0
aa(lp375
I0
aF0.216138218
aF0.162497768
aI-1
aF64.41758911
aF1.0
aF3.0
aI1
aI5
aF2.0
aF1.0
aI0
aF44.0
aF32.0
aa(lp376
I1
aF0.589982453
aF0.441985389
aI-1
aF53.19482822
aF3.0
aF0.0
aI5
aI5
aF2.0
aF2.0
aI1
aF74.0
aF74.0
aa(lp377
I0
aNaF0.473262369
aI-1
aF63.41065633
aF0.0
aF1.0
aI3
aI3
aF2.0
aF2.0
aI0
aF66.0
aF42.0
aa(lp378
I1
aF0.717049759
aF0.513368161
aI-1
aNaNaF1.0
aI4
aI4
aF2.0
aF3.0
aI1
aF49.0
aF71.0
aa(lp379
I0
aF0.452450955
aF0.833606308
aI1
aF58.0364347
aF2.0
aF3.0
aI2
aI1
aF2.0
aF1.0
aI1
aF38.0
aF83.0
aa(lp380
I1
aF0.564783529
aF0.473107389
aI-1
aF62.704435
aF2.0
aF1.0
aI3
aI3
aF4.0
aF4.0
aI1
aF70.0
aF39.0
aa(lp381
I1
aF0.78959448
aF0.740677741
aI0
aF65.03739413
aF0.0
aF0.0
aI2
aI1
aF4.0
aF1.0
aI1
aF28.0
aF77.0
aa(lp382
I0
aF0.322063462
aF0.436432186
aI0
aF64.54828159
aF-1.0
aF1.0
aI5
aI1
aF2.0
aF2.0
aI0
aF23.0
aF67.0
aa(lp383
I1
aF0.433788345
aF0.591597621
aI0
aF72.36941521
aF2.0
aNaI1
aI5
aNaF2.0
aI0
aF59.0
aF-3.0
aa(lp384
I0
aF0.824059108
aF0.724183623
aI0
aF53.61100148
aF0.0
aF2.0
aI2
aI5
aF2.0
aF3.0
aI1
aF38.0
aF62.0
aa(lp385
I0
aF0.338672935
aF0.333652845
aI-1
aF75.03242192
aNaF3.0
aI4
aI4
aF1.0
aF3.0
aI0
aF22.0
aF62.0
aa(lp386
I1
aF0.891214782
aF0.675086118
aI1
aF61.56045745
aF2.0
aF2.0
aI1
aI1
aF3.0
aNaI0
aF49.0
aF78.0
aa(lp387
I0
aF0.236538504
aF0.301877933
aI-1
aF62.46476773
aF0.0
aF2.0
aNaI1
aF3.0
aF4.0
aI1
aF70.0
aF39.0
aa(lp388
I1
aF0.121565376
aF0.273583911
aI-1
aF63.27764706
aNaF2.0
aI4
aI2
aNaF2.0
aI0
aF33.0
aF73.0
aa(lp389
I0
aF0.30733397
aF0.225743944
aI0
aF53.053984
aF1.0
aF2.0
aI4
aI1
aF4.0
aF3.0
aI0
aF41.0
aF52.0
aa(lp390
I1
aF0.650678546
aF0.810531142
aI-1
aF68.30868865
aF1.0
aF2.0
aI5
aI5
aF4.0
aF2.0
aI0
aF95.0
aF38.0
aa(lp391
I1
aF0.6325249
aF0.275587792
aI0
aF72.4189636
aF2.0
aF2.0
aI4
aI4
aF2.0
aF4.0
aI1
aF56.0
aF39.0
aa(lp392
I0
aF0.354533399
aF0.309929534
aI1
aF71.79647249
aF0.0
aF2.0
aI4
aI2
aF0.0
aF3.0
aI0
aF38.0
aF41.0
aa(lp393
I0
aF0.474999841
aF0.559185655
aI1
aF74.07657014
aF3.0
aF4.0
aI1
aNaF2.0
aF2.0
aI1
aF55.0
aF67.0
aa(lp394
I0
aF0.731106884
aF0.997656829
aI1
aF57.16464083
aF1.0
aF2.0
aI2
aNaF4.0
aF3.0
aI1
aF57.0
aF57.0
aa(lp395
I1
aF0.575447559
aNaI-1
aF67.45318253
aF3.0
aF1.0
aI1
aI5
aF3.0
aF2.0
aI1
aF66.0
aF45.0
aa(lp396
I1
aF0.646901874
aF0.802431383
aI0
aF60.32125247
aF3.0
aF1.0
aI4
aI1
aF3.0
aF4.0
aI1
aF12.0
aF57.0
aa(lp397
I0
aF-0.037387706
aF0.193358769
aI0
aF73.81070613
aF1.0
aNaI4
aI5
aF3.0
aF2.0
aI1
aF45.0
aNaa(lp398
I0
aF0.487232021
aF0.389155795
aI1
aF66.6500043
aF0.0
aF1.0
aNaI3
aF4.0
aF4.0
aI0
aF28.0
aF59.0
aa(lp399
I0
aF0.409759945
aF0.095669014
aI1
aF69.14888569
aF1.0
aNaI3
aI3
aF3.0
aF2.0
aI1
aNaF38.0
aa(lp400
I1
aF0.015911283
aF0.299062264
aI0
aF66.10691272
aF2.0
aF1.0
aI2
aI1
aF3.0
aF2.0
aI0
aF72.0
aF26.0
aa(lp401
I0
aF0.661519862
aF0.317836045
aI0
aF70.3873384
aF1.0
aNaI3
aI2
aF2.0
aF3.0
aI1
aF35.0
aF76.0
aa(lp402
I0
aF0.695671473
aF0.33434187
aNaF70.73953078
aF2.0
aF4.0
aI5
aI5
aF3.0
aF3.0
aI0
aNaF31.0
aa(lp403
I0
aNaF0.421586768
aI1
aF66.47577307
aF2.0
aF3.0
aNaI1
aF4.0
aF3.0
aI0
aF76.0
aF45.0
aa(lp404
I1
aF0.124786271
aF0.598326469
aI0
aF75.94088831
aF2.0
aF1.0
aI1
aI2
aF3.0
aF1.0
aI1
aF69.0
aF74.0
aa(lp405
I1
aF0.385562511
aF0.130825738
aI0
aF52.48364847
aF1.0
aF2.0
aI3
aI1
aNaF2.0
aNaF59.0
aF7.0
aa(lp406
I0
aF0.521351744
aF0.167277999
aI1
aF55.41804305
aF3.0
aF1.0
aI4
aI3
aF3.0
aF4.0
aI0
aF34.0
aF58.0
aa(lp407
I1
aF0.132534421
aF0.664956143
aI-1
aF62.16507542
aF3.0
aF1.0
aNaI4
aF3.0
aF2.0
aI0
aF39.0
aF57.0
aa(lp408
I1
aF0.644127102
aF0.464844818
aI0
aF69.44032995
aF3.0
aF2.0
aI4
aI5
aF4.0
aF4.0
aI0
aF69.0
aF15.0
aa(lp409
I1
aF0.508244413
aF0.70862519
aI1
aNaNaF1.0
aI4
aI2
aF2.0
aF3.0
aI1
aF54.0
aF34.0
aa(lp410
I1
aF0.523975882
aF0.484383467
aI1
aF58.37293739
aF2.0
aF0.0
aNaI2
aF2.0
aF0.0
aNaF3.0
aF42.0
aa(lp411
I0
aF0.449521369
aF0.384742221
aI0
aF64.44203608
aF0.0
aF2.0
aI3
aI4
aF2.0
aF3.0
aI1
aF12.0
aF18.0
aa(lp412
I0
aF0.30398758
aF0.551480865
aI-1
aF63.70522608
aF1.0
aF2.0
aI2
aI3
aF4.0
aF2.0
aI0
aF29.0
aF54.0
aa(lp413
I1
aF0.892207696
aF0.581740635
aI-1
aF64.3098432
aF1.0
aF1.0
aI3
aI3
aF2.0
aF1.0
aI0
aF51.0
aF36.0
aa(lp414
I0
aF0.632060131
aF0.545697159
aI-1
aF71.36247093
aF1.0
aF3.0
aI4
aI5
aF1.0
aF2.0
aI1
aF63.0
aF97.0
aa(lp415
I0
aF0.61392556
aF0.265121033
aI1
aNaF1.0
aF2.0
aI2
aI1
aF1.0
aF1.0
aI1
aF37.0
aF66.0
aa(lp416
I0
aF0.831780093
aF0.078545013
aI-1
aF60.36944332
aF2.0
aF1.0
aI1
aI5
aF3.0
aF2.0
aI0
aF45.0
aF27.0
aa(lp417
I1
aF0.927672947
aF0.377210991
aI1
aF59.15052877
aF1.0
aF1.0
aI3
aI4
aF1.0
aF3.0
aI1
aF98.0
aF18.0
aa(lp418
I0
aNaF0.145004708
aI-1
aF81.50095868
aF2.0
aF2.0
aI3
aI2
aF3.0
aF3.0
aI1
aF32.0
aF64.0
aa(lp419
I1
aNaF0.3391787
aI0
aF53.17005766
aF1.0
aF1.0
aI5
aI1
aF3.0
aF3.0
aI0
aF39.0
aF60.0
aa(lp420
I0
aF0.584094545
aNaI1
aF69.05990922
aF2.0
aF3.0
aI4
aI1
aF1.0
aF3.0
aNaF25.0
aF64.0
aa(lp421
I1
aF0.560537297
aF0.593151059
aI1
aF66.55670758
aF3.0
aF3.0
aI4
aI3
aF2.0
aF2.0
aI0
aF37.0
aF76.0
aa(lp422
I1
aNaF0.405479705
aI0
aF71.27748849
aF1.0
aF1.0
aI3
aI1
aF1.0
aF2.0
aI1
aF28.0
aF41.0
aa(lp423
I1
aF0.540434578
aF0.6874016
aI-1
aF77.51498928
aF2.0
aF0.0
aI5
aI1
aF2.0
aNaI0
aF38.0
aF29.0
aa(lp424
I0
aF0.471232721
aF0.481582254
aI1
aNaF0.0
aF3.0
aI2
aI4
aF2.0
aF4.0
aI1
aF101.0
aF87.0
aa(lp425
I0
aF0.796645053
aF0.712428429
aI0
aF59.39628899
aF0.0
aF1.0
aI2
aI4
aF3.0
aF4.0
aI1
aF46.0
aF55.0
aa(lp426
I0
aF0.301886736
aF0.382170756
aI1
aF69.94562538
aF0.0
aNaI2
aI4
aF2.0
aF1.0
aI1
aF35.0
aF62.0
aa(lp427
I1
aF0.213697679
aF0.231143581
aI0
aF62.86626407
aF2.0
aF2.0
aI3
aI2
aF1.0
aF3.0
aNaF75.0
aF27.0
aa(lp428
I1
aF0.159234037
aF0.680475796
aI0
aF65.72417892
aF2.0
aF1.0
aI4
aI2
aF-1.0
aF3.0
aI1
aF49.0
aF36.0
aa(lp429
I1
aF0.335997108
aF0.636513834
aI0
aF55.54624149
aF1.0
aF2.0
aI2
aI4
aF1.0
aF5.0
aI1
aF75.0
aF31.0
aa(lp430
I1
aF0.624021184
aF0.490545039
aI0
aF63.30874058
aF2.0
aF2.0
aI3
aI1
aF3.0
aNaI0
aF59.0
aF34.0
aa(lp431
I1
aF0.616291431
aF0.867584872
aI1
aF73.1158065
aF4.0
aF2.0
aI4
aI2
aNaF2.0
aI1
aF37.0
aF84.0
aa(lp432
I1
aF0.716464757
aF0.382761423
aI1
aF63.60429768
aF2.0
aF1.0
aI2
aI2
aF2.0
aF1.0
aI1
aF93.0
aNaa(lp433
I1
aF0.555273033
aF0.549853013
aI-1
aF73.57116092
aF4.0
aF1.0
aI4
aI2
aF3.0
aF2.0
aI1
aF45.0
aF81.0
aa(lp434
I1
aF0.753742259
aF0.929307736
aI-1
aF69.93643063
aF2.0
aF2.0
aI5
aI5
aF4.0
aF4.0
aI0
aF57.0
aF64.0
aa(lp435
I1
aF0.123158915
aF0.463806911
aI0
aF65.45609834
aF2.0
aF0.0
aI3
aI4
aF2.0
aF2.0
aI0
aF61.0
aF52.0
aa(lp436
I0
aF0.876074871
aF0.157881551
aI1
aF72.50836404
aF0.0
aF2.0
aI1
aI2
aF2.0
aF1.0
aI0
aF22.0
aF82.0
aa(lp437
I1
aF0.598226658
aF0.720817975
aI1
aF69.2558547
aF3.0
aF1.0
aI3
aI5
aNaF2.0
aI0
aF61.0
aF50.0
aa(lp438
I1
aF0.355999663
aF0.339571496
aI-1
aF78.67872906
aF1.0
aF0.0
aI5
aI2
aF2.0
aF0.0
aI0
aF66.0
aF81.0
aa(lp439
I1
aF0.741495118
aF0.513936685
aI0
aF53.84295221
aF3.0
aF1.0
aI5
aI1
aF2.0
aNaI0
aF39.0
aF59.0
aa(lp440
I1
aF0.507177694
aF0.581281594
aI1
aF71.40401887
aF2.0
aF1.0
aI1
aI4
aF2.0
aF2.0
aI1
aNaF61.0
aa(lp441
I1
aF0.430762038
aF0.406366308
aI1
aF56.13491619
aF1.0
aF0.0
aI3
aI2
aF3.0
aNaI0
aF49.0
aF57.0
aa(lp442
I1
aF0.255608158
aF0.540015745
aI-1
aF65.5945938
aF1.0
aF0.0
aI5
aNaF3.0
aF3.0
aI0
aF47.0
aF26.0
aa(lp443
I1
aF0.650667007
aF0.645658727
aI0
aF69.26940704
aF3.0
aF1.0
aI5
aI3
aNaNaI1
aF47.0
aF58.0
aa(lp444
I0
aF0.704944206
aF0.213391004
aI-1
aF58.8169319
aF-1.0
aF1.0
aI5
aI4
aF4.0
aF2.0
aNaF48.0
aF71.0
aa(lp445
I1
aF0.108752087
aF0.086020639
aI-1
aF63.92442486
aF1.0
aF1.0
aI4
aI4
aNaF1.0
aI0
aNaF-9.0
aa(lp446
I1
aF0.533836249
aF0.297930245
aI0
aF54.50351292
aF2.0
aNaI4
aI3
aF1.0
aF4.0
aI0
aF57.0
aNaa(lp447
I1
aF0.777399225
aF0.488200872
aI-1
aF57.57213063
aF2.0
aF0.0
aI1
aI1
aF4.0
aF2.0
aI1
aF35.0
aF39.0
aa(lp448
I0
aF0.5380479
aF0.15431423
aI-1
aF68.09923146
aF3.0
aF3.0
aI1
aI1
aF3.0
aF4.0
aI0
aF25.0
aF27.0
aa(lp449
I0
aF0.901611692
aF0.237725847
aI-1
aF66.48076332
aF2.0
aF1.0
aI2
aI5
aF3.0
aF2.0
aI0
aF40.0
aF56.0
aa(lp450
I1
aF0.705320343
aF0.472235309
aI1
aF69.25195361
aF3.0
aF0.0
aI4
aI1
aF3.0
aF1.0
aI1
aF30.0
aF80.0
aa(lp451
I0
aF0.550539599
aF0.488909549
aI1
aF56.27224971
aF1.0
aF2.0
aI1
aI2
aF2.0
aF4.0
aI0
aF42.0
aF26.0
aa(lp452
I0
aF0.244063461
aF0.542066621
aI0
aF69.99888753
aNaF0.0
aI4
aI2
aF4.0
aF2.0
aI1
aF37.0
aF49.0
aa(lp453
I1
aF0.399250675
aF0.258270807
aI1
aF69.06891059
aF3.0
aF1.0
aI3
aI3
aF4.0
aF2.0
aI1
aF78.0
aF39.0
aa(lp454
I1
aF0.373899138
aF0.407948063
aI0
aF65.84494014
aF4.0
aF1.0
aI1
aI5
aF1.0
aF3.0
aI1
aF19.0
aF50.0
aa(lp455
I0
aF0.548804167
aF0.725660522
aI-1
aF55.72814933
aF1.0
aF3.0
aI5
aI5
aF3.0
aF3.0
aI1
aNaF30.0
aa(lp456
I1
aF0.347885717
aF0.485391721
aI1
aF57.05287936
aF3.0
aF2.0
aI2
aI3
aF3.0
aF4.0
aI1
aF67.0
aF79.0
aa(lp457
I1
aF0.18941761
aF0.607473912
aI0
aF59.2669496
aF2.0
aF0.0
aI1
aNaF3.0
aF2.0
aI1
aF61.0
aF50.0
aa(lp458
I0
aF0.627278574
aF0.216933108
aI0
aF53.47964842
aF2.0
aF3.0
aI4
aI2
aF2.0
aNaI0
aF78.0
aNaa(lp459
I0
aF0.929746511
aF0.382294882
aI-1
aF61.38833393
aF3.0
aF0.0
aI2
aI2
aF3.0
aF3.0
aNaF49.0
aF57.0
aa(lp460
I0
aF0.322224389
aF0.319957849
aI1
aF82.43507172
aF1.0
aF2.0
aI1
aI2
aF1.0
aF5.0
aI0
aF58.0
aF47.0
aa(lp461
I0
aF0.671756835
aF0.420875466
aI1
aF65.09890048
aF1.0
aF2.0
aI1
aI5
aF3.0
aNaI0
aF73.0
aF62.0
aa(lp462
I0
aF0.598234618
aF0.161309738
aI-1
aF72.4022184
aF1.0
aF-1.0
aI5
aI1
aF2.0
aF0.0
aI1
aF47.0
aF62.0
aa(lp463
I0
aF0.504127507
aF0.216454339
aI1
aF60.1548695
aF2.0
aNaI2
aI1
aF2.0
aF3.0
aI0
aF69.0
aF56.0
aa(lp464
I0
aNaF0.90282412
aI-1
aF76.41118571
aF1.0
aF2.0
aI5
aI3
aF3.0
aF3.0
aI1
aF60.0
aNaa(lp465
I0
aF0.398262423
aF0.449106391
aI-1
aF47.95816263
aNaF3.0
aI2
aI5
aF2.0
aF3.0
aI0
aF30.0
aF82.0
aa(lp466
I1
aF0.22433491
aF0.353932445
aI-1
aF75.65014848
aF1.0
aF1.0
aI4
aI1
aF1.0
aF3.0
aI0
aF88.0
aNaa(lp467
I1
aF0.382762723
aF-0.123341147
aI-1
aF74.33799136
aF2.0
aF0.0
aI3
aI4
aF3.0
aF4.0
aI1
aF62.0
aF48.0
aa(lp468
I0
aF0.005728916
aF0.366931758
aI0
aF53.26946133
aF0.0
aF3.0
aI4
aI3
aF4.0
aF3.0
aI1
aF17.0
aF63.0
aa(lp469
I1
aF0.405492691
aF0.555917846
aI-1
aF63.24718056
aF1.0
aF1.0
aI5
aI2
aF5.0
aF1.0
aI0
aF55.0
aF70.0
aa(lp470
I1
aF0.723663921
aF0.715184166
aI0
aNaF2.0
aF1.0
aI2
aI3
aF2.0
aF2.0
aI0
aF64.0
aF46.0
aa(lp471
I0
aF0.663372454
aF0.498653275
aI-1
aF66.09764327
aF1.0
aF2.0
aI2
aI4
aF2.0
aF4.0
aNaF82.0
aF74.0
aa(lp472
I0
aF0.482913584
aF0.447211759
aI1
aF65.27213262
aF0.0
aF3.0
aI1
aI2
aF2.0
aF4.0
aNaF17.0
aF55.0
aa(lp473
I1
aF0.526068495
aF-0.157133727
aI1
aF71.65690726
aF1.0
aF3.0
aI1
aI1
aF2.0
aF1.0
aI0
aF29.0
aF32.0
aa(lp474
I0
aF0.309898359
aF0.440136379
aI0
aF66.27467613
aF1.0
aNaI1
aNaF2.0
aF2.0
aI1
aNaF46.0
aa(lp475
I1
aF0.699679147
aF0.383845935
aI0
aF65.21865839
aF2.0
aF1.0
aI4
aI1
aF2.0
aF1.0
aI1
aF48.0
aF47.0
aa(lp476
I1
aF0.445966322
aF0.58126663
aNaF62.70242781
aF1.0
aF0.0
aI1
aI2
aF3.0
aF3.0
aI0
aF49.0
aF46.0
aa(lp477
I0
aF0.62100341
aF0.735115087
aNaF58.34767175
aF1.0
aF2.0
aI2
aI4
aF3.0
aF2.0
aI0
aF87.0
aF72.0
aa(lp478
I0
aF0.504037222
aF0.695684049
aI-1
aF67.71202576
aF1.0
aNaI5
aI2
aF3.0
aF0.0
aI0
aF40.0
aF54.0
aa(lp479
I1
aF0.569057442
aNaNaF70.44233189
aNaF1.0
aI4
aI4
aF3.0
aF2.0
aI0
aF64.0
aF17.0
aa(lp480
I1
aF0.646500532
aF0.412224246
aI-1
aF67.64788837
aF0.0
aF0.0
aI5
aI3
aF5.0
aF4.0
aI1
aF51.0
aF34.0
aa(lp481
I1
aF0.19564506
aF0.329016446
aI1
aF62.41098515
aF2.0
aF2.0
aI2
aI4
aF2.0
aF2.0
aI1
aF77.0
aF70.0
aa(lp482
I0
aF0.261246461
aF0.443607068
aI0
aF72.92636937
aF0.0
aF1.0
aI5
aI5
aF0.0
aF2.0
aI1
aF42.0
aF25.0
aa(lp483
I1
aF0.446917075
aF0.288939489
aI-1
aF72.68653056
aF2.0
aF1.0
aI1
aI3
aF3.0
aF3.0
aI0
aF66.0
aF74.0
aa(lp484
I1
aF0.429812056
aF0.824250859
aI1
aF63.00742322
aF3.0
aF-1.0
aI2
aI3
aF3.0
aF3.0
aI1
aF70.0
aF46.0
aa(lp485
I1
aF0.494913882
aF0.404677651
aI1
aF60.7257031
aF2.0
aF2.0
aI3
aI3
aF2.0
aF2.0
aI1
aF45.0
aF30.0
aa(lp486
I1
aF0.510444082
aF0.616920733
aI0
aF60.75494078
aF0.0
aF0.0
aI2
aI2
aF3.0
aF2.0
aI1
aF90.0
aF74.0
aa(lp487
I1
aF0.587468719
aF0.491018724
aI1
aF67.80688949
aF2.0
aF1.0
aNaI1
aF4.0
aF2.0
aI0
aF60.0
aF54.0
aa(lp488
I1
aF0.392330176
aF0.501369728
aNaNaF3.0
aF3.0
aI5
aI5
aF2.0
aNaI0
aF35.0
aF79.0
aa(lp489
I1
aF0.301153448
aF0.503447836
aI0
aF55.14153743
aF2.0
aF1.0
aI5
aI4
aF4.0
aF2.0
aI0
aF34.0
aNaa(lp490
I1
aF0.455974933
aF0.512043204
aI1
aF77.62617704
aF1.0
aF1.0
aI1
aI3
aF1.0
aF3.0
aI0
aF83.0
aF35.0
aa(lp491
I0
aF0.40816005
aF0.322965624
aI1
aF55.47823075
aF0.0
aF1.0
aI3
aI2
aF3.0
aF3.0
aI1
aF45.0
aF33.0
aa(lp492
I1
aF0.255653694
aF0.204135276
aNaF73.03657151
aF2.0
aF1.0
aI2
aI3
aF4.0
aF3.0
aI0
aF33.0
aF53.0
aa(lp493
I0
aF0.410062682
aF0.480141936
aI0
aF64.67835747
aF0.0
aF2.0
aI5
aI4
aF3.0
aF4.0
aI1
aF47.0
aF49.0
aa(lp494
I1
aF0.891854075
aF0.774564687
aI-1
aF73.46423843
aF1.0
aF1.0
aI5
aI3
aF3.0
aF2.0
aI0
aF64.0
aF40.0
aa(lp495
I0
aF0.733708056
aF0.185196793
aI0
aF60.50696971
aNaF3.0
aNaI5
aF3.0
aF3.0
aI1
aNaF74.0
aa(lp496
I0
aF0.538835049
aF0.470571483
aI0
aF58.14934927
aF0.0
aF2.0
aNaI5
aF2.0
aF5.0
aI0
aF43.0
aF65.0
aa(lp497
I0
aF0.763986793
aF0.746337975
aI0
aF63.49052372
aF1.0
aF2.0
aI3
aI3
aF0.0
aF3.0
aI0
aF60.0
aF42.0
aa(lp498
I0
aF0.549123616
aF0.228065667
aI-1
aF61.8208853
aF0.0
aF0.0
aI4
aI1
aF3.0
aF3.0
aI1
aF43.0
aF46.0
aa(lp499
I1
aF0.476829424
aF0.572181389
aI-1
aF75.89052486
aNaF1.0
aI1
aI2
aF2.0
aF3.0
aI0
aF72.0
aF44.0
aa(lp500
I1
aF0.303779487
aF0.515364183
aI-1
aF74.03469505
aF2.0
aF1.0
aI4
aI1
aF2.0
aF0.0
aI1
aF29.0
aF39.0
aa(lp501
I1
aF0.524041527
aF0.344131092
aNaF70.92684672
aF2.0
aF0.0
aI4
aI4
aF3.0
aF4.0
aI0
aF58.0
aF22.0
aa(lp502
I0
aF0.312661499
aF0.64821838
aI1
aF63.93397092
aF-1.0
aF1.0
aI3
aI4
aF4.0
aF0.0
aI0
aF7.0
aF72.0
aa(lp503
I0
aF0.159539816
aF0.71171827
aI0
aF71.06862552
aF1.0
aF2.0
aI4
aI3
aF1.0
aF2.0
aI0
aF44.0
aNaa(lp504
I1
aF0.165171632
aF0.623604213
aI0
aF63.82001763
aF1.0
aF1.0
aI4
aI1
aF3.0
aF3.0
aI1
aF79.0
aF63.0
aa(lp505
I1
aF0.421698548
aF0.196625284
aI-1
aF64.60280261
aF2.0
aF1.0
aI2
aI5
aF1.0
aF1.0
aI1
aF58.0
aF61.0
aa(lp506
I1
aF0.230672069
aF0.442677424
aI0
aF59.59325517
aF3.0
aNaI2
aNaF4.0
aF2.0
aI0
aF43.0
aF29.0
aa(lp507
I0
aF0.510085655
aF0.383237783
aI-1
aF57.5844174
aF1.0
aF2.0
aI3
aI2
aF3.0
aF2.0
aI0
aF49.0
aF36.0
aa(lp508
I1
aF0.591134944
aF0.509635053
aI-1
aF72.07892875
aF2.0
aF2.0
aI1
aI1
aF3.0
aNaI1
aF67.0
aF43.0
aa(lp509
I0
aF0.541438254
aF0.537295042
aI0
aF62.69854496
aF1.0
aF4.0
aI5
aI4
aF4.0
aF2.0
aI1
aF41.0
aF61.0
aa(lp510
I1
aF0.256046779
aF0.304144282
aI1
aF75.7501185
aF3.0
aF1.0
aI4
aI2
aF2.0
aF2.0
aI1
aF49.0
aF27.0
aa(lp511
I1
aF0.733345142
aF0.498546375
aI0
aF65.67398713
aF1.0
aF0.0
aI1
aI4
aF3.0
aF2.0
aI1
aF63.0
aF36.0
aa(lp512
I0
aF0.49332682
aF0.119564339
aI0
aNaF2.0
aF1.0
aI3
aI4
aF0.0
aF4.0
aI0
aF43.0
aF48.0
aa(lp513
I0
aF0.523089142
aF0.137938334
aI-1
aF58.06707072
aF2.0
aF2.0
aI3
aI5
aF3.0
aF2.0
aI0
aF46.0
aF42.0
aa(lp514
I1
aF0.446425286
aF0.545747191
aI-1
aF70.58714153
aF1.0
aF2.0
aNaI4
aNaF3.0
aI1
aF81.0
aF40.0
aa(lp515
I1
aF0.635048291
aF0.567170637
aI0
aF58.4015016
aF2.0
aF1.0
aI2
aI4
aF3.0
aF2.0
aI0
aF36.0
aF59.0
aa(lp516
I0
aF0.744946385
aF0.521550171
aNaF59.10711373
aF1.0
aF2.0
aI3
aI4
aF2.0
aF3.0
aI0
aF12.0
aF85.0
aa(lp517
I0
aF0.62536611
aF0.281995273
aI-1
aNaF0.0
aF1.0
aI3
aI5
aF3.0
aF3.0
aNaF61.0
aF52.0
aa(lp518
I0
aF0.36702717
aF0.458683037
aNaF65.02168891
aF-2.0
aF0.0
aI4
aI4
aF4.0
aF2.0
aI1
aF59.0
aF50.0
aa(lp519
I1
aF0.434116206
aF0.32044247
aI-1
aF66.35375429
aF1.0
aF2.0
aI3
aNaF2.0
aF2.0
aI1
aF-9.0
aF31.0
aa(lp520
I1
aF0.711465207
aF0.505214799
aI0
aF70.92772835
aF3.0
aF1.0
aI2
aI2
aF2.0
aF4.0
aI1
aF47.0
aF46.0
aa(lp521
I1
aF0.558363619
aF0.338857576
aI1
aF64.34762312
aF3.0
aF3.0
aI5
aI5
aF3.0
aF3.0
aI0
aF31.0
aF28.0
aa(lp522
I1
aF0.629555497
aF0.570302909
aI1
aF64.95681275
aF2.0
aF0.0
aI5
aI4
aF3.0
aF3.0
aI1
aF34.0
aF60.0
aa(lp523
I0
aNaF0.323694008
aNaF61.92324243
aF0.0
aF2.0
aI4
aI3
aF2.0
aF3.0
aI1
aF41.0
aF45.0
aa(lp524
I0
aF0.340200579
aF0.379964552
aI-1
aF67.71798145
aF1.0
aF2.0
aI1
aI2
aF2.0
aF2.0
aI0
aF57.0
aF69.0
aa(lp525
I0
aF0.606068317
aF0.2553797
aI0
aF68.74998841
aF2.0
aF3.0
aI3
aI3
aF3.0
aF3.0
aI0
aF46.0
aF71.0
aa(lp526
I0
aF0.435562885
aF0.412506536
aI0
aF56.9970272
aF2.0
aF3.0
aI2
aI2
aF0.0
aF2.0
aI0
aF29.0
aF38.0
aa(lp527
I0
aF0.481620805
aF0.096780677
aI0
aF72.1221555
aF2.0
aF1.0
aNaI3
aF2.0
aF1.0
aI1
aF11.0
aF68.0
aa(lp528
I0
aF0.297906162
aF0.49561365
aI-1
aF68.08011557
aF2.0
aF3.0
aI1
aI4
aNaF0.0
aI0
aF49.0
aF43.0
aa(lp529
I1
aF0.308750083
aF0.57183136
aI1
aNaF2.0
aF0.0
aI5
aI1
aF3.0
aF3.0
aI1
aF41.0
aF59.0
aa(lp530
I0
aNaF0.322456502
aI0
aF56.04581798
aF3.0
aF2.0
aI4
aI1
aF2.0
aF4.0
aI0
aF33.0
aF63.0
aa(lp531
I1
aF0.56745513
aF0.491373629
aI1
aF65.52423565
aF2.0
aNaI3
aI3
aF2.0
aF2.0
aI0
aF31.0
aF59.0
aa(lp532
I0
aF0.404552985
aF0.705517677
aI1
aF56.24692294
aF1.0
aF2.0
aI2
aI1
aF3.0
aF2.0
aI0
aF47.0
aF34.0
aa(lp533
I1
aF0.480981308
aF0.430632554
aI1
aF70.32998466
aF1.0
aF-1.0
aI3
aI2
aF4.0
aF4.0
aI1
aF37.0
aF57.0
aa(lp534
I1
aF0.452056127
aF0.562478085
aI1
aF69.68712514
aF1.0
aF0.0
aI3
aI4
aF2.0
aF2.0
aI0
aF75.0
aF65.0
aa(lp535
I1
aF0.476473638
aF0.545918994
aI1
aF62.71409847
aF3.0
aF2.0
aI1
aNaF1.0
aF1.0
aI0
aF46.0
aF14.0
aa(lp536
I1
aF0.709166799
aF0.543740021
aI-1
aF75.19482746
aF1.0
aF0.0
aI3
aI1
aF3.0
aF2.0
aI1
aF35.0
aF56.0
aa(lp537
I0
aF0.163128269
aF0.416932651
aI-1
aF59.41117423
aF1.0
aF2.0
aI2
aI3
aF2.0
aF2.0
aI1
aF64.0
aF59.0
aa(lp538
I0
aF0.662077904
aF0.505325911
aI-1
aF64.75200527
aF2.0
aF4.0
aI2
aI1
aF1.0
aF3.0
aI0
aF66.0
aF62.0
aa(lp539
I1
aF0.432873908
aF0.957604196
aI0
aF66.25369436
aF4.0
aF3.0
aI1
aI1
aF2.0
aF2.0
aI1
aF45.0
aF49.0
aa(lp540
I0
aF0.591788355
aF0.708981777
aI0
aF72.72459853
aF-1.0
aF2.0
aI1
aNaF3.0
aF2.0
aNaF23.0
aF13.0
aa(lp541
I1
aF0.886709343
aF0.520561721
aI1
aF72.18145255
aF1.0
aF0.0
aI4
aI4
aF2.0
aF3.0
aI0
aF67.0
aNaa(lp542
I1
aF0.441953939
aF0.460788784
aI-1
aF65.56633479
aF4.0
aF1.0
aI5
aI4
aF2.0
aF2.0
aI0
aF43.0
aNaa(lp543
I1
aF0.217772332
aF0.237168117
aI0
aF75.11161177
aF3.0
aF0.0
aI2
aI4
aF3.0
aF3.0
aI1
aNaF61.0
aa(lp544
I1
aF0.787943008
aF0.505607604
aI1
aF74.31337053
aF1.0
aF2.0
aI5
aI5
aF2.0
aF3.0
aI1
aF89.0
aF2.0
aa(lp545
I1
aF0.20504455
aF0.643489121
aI-1
aF63.05204478
aF1.0
aF3.0
aI4
aI3
aF2.0
aF2.0
aI1
aF63.0
aF25.0
aa(lp546
I1
aNaF0.303196557
aI1
aF67.52741858
aF1.0
aF1.0
aI5
aI2
aF3.0
aF4.0
aNaNaF48.0
aa(lp547
I1
aF0.446614094
aF0.588070152
aI1
aF62.64940199
aF2.0
aF0.0
aI2
aI4
aF2.0
aF1.0
aI1
aF93.0
aF49.0
aa(lp548
I1
aF0.204111675
aF0.8988253
aI1
aF66.11517124
aF2.0
aF2.0
aI3
aI3
aF4.0
aF2.0
aI0
aF27.0
aF48.0
aa(lp549
I0
aF0.363905916
aF0.595719577
aI0
aF65.33934864
aF2.0
aF3.0
aI5
aI1
aF3.0
aF1.0
aI0
aF30.0
aF58.0
aa(lp550
I0
aF0.317461972
aF0.108349565
aI-1
aF52.18744925
aF2.0
aF1.0
aI5
aI2
aF1.0
aF3.0
aI0
aF48.0
aF51.0
aa(lp551
I1
aF0.140401382
aF0.670176133
aI1
aF73.17674129
aF2.0
aF-1.0
aI4
aI3
aF2.0
aF2.0
aI1
aF42.0
aF52.0
aa(lp552
I1
aF0.130732693
aF0.593275031
aI-1
aF64.94540586
aF0.0
aF0.0
aNaI4
aNaF1.0
aI0
aF76.0
aF34.0
aa(lp553
I1
aF0.4052492
aF0.802080192
aI0
aF69.9950096
aF4.0
aF2.0
aI1
aI5
aF1.0
aF0.0
aI0
aF40.0
aF77.0
aa(lp554
I0
aF0.18298716
aF0.45504204
aI-1
aF61.0691878
aF0.0
aF4.0
aI1
aI1
aF2.0
aF3.0
aI1
aF35.0
aF27.0
aa(lp555
I1
aF0.448366472
aF0.428287065
aNaF55.45540325
aF2.0
aF2.0
aI4
aI5
aF3.0
aF2.0
aI1
aF24.0
aF66.0
aa(lp556
I0
aF0.53975584
aF0.01943643
aI-1
aF56.45463806
aNaF2.0
aI5
aI5
aF2.0
aF2.0
aI1
aF2.0
aF87.0
aa(lp557
I1
aF0.586294908
aF0.449788289
aI1
aF54.73214696
aF2.0
aF0.0
aI5
aNaF2.0
aF2.0
aI1
aF65.0
aF74.0
aa(lp558
I1
aF0.504423639
aF1.176645192
aI1
aF55.53459609
aF1.0
aF2.0
aI5
aI3
aF3.0
aF2.0
aI1
aF41.0
aF25.0
aa(lp559
I0
aF0.233623069
aF0.239792
aI1
aF69.07256733
aF2.0
aNaI2
aI2
aF3.0
aF2.0
aI0
aNaF42.0
aa(lp560
I0
aF0.653068763
aF0.337368973
aI0
aF67.11218055
aF1.0
aF1.0
aI3
aI5
aF3.0
aF3.0
aI0
aF22.0
aF61.0
aa(lp561
I1
aF0.474473485
aF0.530361082
aI1
aF64.52051669
aF1.0
aF2.0
aI1
aI4
aF2.0
aF3.0
aI1
aF-15.0
aF58.0
aa(lp562
I1
aF0.35297815
aF0.557491078
aI1
aF70.78650292
aF1.0
aF0.0
aI5
aI3
aF3.0
aF2.0
aI0
aF62.0
aF17.0
aa(lp563
I1
aF0.563038612
aNaI0
aF69.82653227
aNaF0.0
aI5
aI5
aF4.0
aF3.0
aI1
aF63.0
aF47.0
aa(lp564
I0
aF0.395083107
aNaI-1
aF63.34771715
aF0.0
aF2.0
aI5
aI1
aF2.0
aF1.0
aI0
aF36.0
aF65.0
aa(lp565
I1
aF0.691511177
aF0.447281007
aI-1
aF76.52729001
aF2.0
aNaNaI4
aF3.0
aF3.0
aI0
aF55.0
aF48.0
aa(lp566
I1
aF0.759521572
aF0.723756598
aI-1
aF64.30735686
aF2.0
aF2.0
aI4
aI3
aF3.0
aF1.0
aI1
aF63.0
aF58.0
aa(lp567
I1
aF0.65100887
aF0.406685141
aI-1
aF61.98265804
aF3.0
aF3.0
aI2
aI5
aF3.0
aF4.0
aI0
aF54.0
aNaa(lp568
I0
aF0.45434637
aF0.646237998
aI-1
aF69.20661509
aNaF3.0
aI1
aI3
aF1.0
aF4.0
aI1
aF69.0
aF82.0
aa(lp569
I0
aF0.457193808
aF0.206994833
aI0
aF52.33610285
aF1.0
aF0.0
aI1
aI1
aF2.0
aF2.0
aI1
aNaNaa(lp570
I1
aF0.401342686
aF0.579782112
aI1
aF58.66170046
aF1.0
aF2.0
aI3
aI5
aF4.0
aF2.0
aI0
aF97.0
aF47.0
aa(lp571
I1
aF0.270566196
aF0.199097504
aI-1
aF51.18234415
aF3.0
aF2.0
aI4
aI1
aF4.0
aF5.0
aI1
aF68.0
aF60.0
aa(lp572
I1
aNaF0.402052551
aI0
aF57.93441626
aF3.0
aF3.0
aI2
aI1
aF0.0
aF1.0
aI1
aF37.0
aF72.0
aa(lp573
I1
aF0.49963742
aF0.558478323
aI1
aF61.8167146
aF2.0
aF1.0
aI3
aI1
aF1.0
aF1.0
aI1
aF13.0
aF34.0
aa(lp574
I1
aNaF0.578785727
aI0
aF58.32119817
aF1.0
aF1.0
aI5
aI3
aF4.0
aF3.0
aI0
aF25.0
aF89.0
aa(lp575
I0
aF0.222720145
aF0.444550274
aI-1
aF69.41454759
aF1.0
aF2.0
aI5
aI3
aF2.0
aNaI0
aF75.0
aF48.0
aa(lp576
I1
aF0.507155267
aNaI-1
aF65.50583984
aF2.0
aF2.0
aI1
aI1
aF1.0
aF2.0
aI1
aF49.0
aF46.0
aa(lp577
I0
aF0.163198922
aF0.616019605
aI1
aF67.85298776
aF1.0
aF2.0
aI2
aI3
aF3.0
aF3.0
aI1
aF72.0
aF80.0
aa(lp578
I1
aF0.250527655
aF0.494383443
aI1
aF64.8923329
aF1.0
aF2.0
aI1
aI3
aF3.0
aF2.0
aI0
aF58.0
aF31.0
aa(lp579
I0
aF0.453281035
aF0.35799317
aI-1
aF67.29993444
aF1.0
aF3.0
aI4
aI4
aF2.0
aF3.0
aI1
aF36.0
aF23.0
aa(lp580
I1
aF0.505022928
aF0.769208837
aI-1
aNaF2.0
aF2.0
aI4
aI4
aNaF2.0
aI1
aF26.0
aF58.0
aa(lp581
I1
aF0.252250375
aF0.713361567
aI-1
aF66.44015463
aF2.0
aF2.0
aI5
aNaF2.0
aF3.0
aI0
aF48.0
aF45.0
aa(lp582
I0
aF0.370098867
aF0.722405619
aI0
aF56.91902136
aF0.0
aF1.0
aI4
aI5
aF2.0
aF2.0
aI1
aF80.0
aF74.0
aa(lp583
I0
aF0.509429108
aF0.53520946
aI0
aF62.43101139
aF0.0
aF1.0
aI4
aI1
aF2.0
aF3.0
aI1
aF72.0
aF75.0
aa(lp584
I1
aF0.280955158
aF0.491569069
aI1
aF68.21542005
aF2.0
aF1.0
aI2
aI3
aF4.0
aF0.0
aI1
aF72.0
aF68.0
aa(lp585
I0
aF0.791897269
aF0.260301852
aI0
aF73.87051889
aF2.0
aF1.0
aI2
aI1
aF2.0
aF3.0
aI1
aF58.0
aF70.0
aa(lp586
I0
aF0.384719307
aF0.568471594
aI-1
aF63.47515
aF1.0
aF4.0
aI4
aI1
aF4.0
aF2.0
aI0
aF16.0
aF28.0
aa(lp587
I0
aF0.651369525
aF0.66097526
aI1
aF83.44135835
aF0.0
aF2.0
aI2
aNaF2.0
aF2.0
aNaF64.0
aF38.0
aa(lp588
I0
aF0.373156885
aNaI-1
aF67.19854236
aF1.0
aF2.0
aI3
aI1
aF3.0
aF4.0
aI0
aF53.0
aF57.0
aa(lp589
I1
aF0.545762125
aF0.304606473
aI0
aF59.71172108
aF2.0
aF0.0
aI4
aI1
aF2.0
aF0.0
aI1
aF23.0
aF27.0
aa(lp590
I0
aF0.427159333
aF0.23756303
aI0
aF62.59000759
aF0.0
aF1.0
aI2
aI5
aF3.0
aF2.0
aI0
aF58.0
aF51.0
aa(lp591
I1
aF0.583358384
aNaI1
aF61.29619844
aF0.0
aF1.0
aI2
aI4
aF3.0
aF1.0
aI1
aF92.0
aF39.0
aa(lp592
I0
aF0.779862399
aF0.106139912
aI1
aF66.25636453
aF1.0
aF-1.0
aI1
aI1
aF2.0
aNaI1
aF61.0
aF16.0
aa(lp593
I1
aF0.1507801
aF0.563618327
aI1
aF73.00323865
aF4.0
aF2.0
aI3
aI5
aF3.0
aF2.0
aI0
aF53.0
aF21.0
aa(lp594
I1
aF0.581950268
aF0.470212545
aI1
aF64.49171835
aF1.0
aF2.0
aI2
aI4
aF4.0
aF3.0
aI1
aF64.0
aF31.0
aa(lp595
I1
aF0.445873526
aF0.497388528
aI1
aF58.62575611
aF1.0
aF1.0
aI1
aI3
aNaF3.0
aI1
aF69.0
aF55.0
aa(lp596
I1
aF0.434362455
aF0.598095254
aI0
aF69.86393786
aF3.0
aF2.0
aI5
aI1
aF2.0
aF2.0
aI0
aF38.0
aF59.0
aa(lp597
I1
aF0.678962499
aF0.582554789
aNaF68.66040475
aF3.0
aF3.0
aI2
aI5
aF4.0
aF2.0
aI1
aF70.0
aF55.0
aa(lp598
I1
aF0.601483619
aF0.520503038
aI1
aF68.78286256
aF1.0
aF1.0
aI2
aI5
aF2.0
aF3.0
aI0
aF38.0
aF47.0
aa(lp599
I0
aF0.62810013
aF0.542868178
aI1
aF56.32038174
aF1.0
aF2.0
aI2
aI5
aF2.0
aF3.0
aI1
aF30.0
aF25.0
aa(lp600
I0
aNaF0.385384386
aI1
aF64.78173019
aF2.0
aF3.0
aI5
aI2
aF3.0
aNaI0
aF63.0
aF31.0
aa(lp601
I1
aF0.23555249
aF0.585220635
aI-1
aF62.17114471
aF3.0
aF1.0
aNaI2
aF0.0
aF3.0
aI1
aF69.0
aF54.0
aa(lp602
I1
aF0.42967613
aF0.434584233
aI1
aF72.69557168
aF3.0
aF1.0
aI1
aI4
aF2.0
aF2.0
aI1
aF44.0
aNaa(lp603
I1
aNaF0.566483698
aI1
aF65.48573321
aF1.0
aF1.0
aI4
aI5
aF2.0
aF3.0
aI0
aF28.0
aF22.0
aa(lp604
I1
aF0.37701877
aF0.615534931
aI-1
aF72.05908981
aF2.0
aF1.0
aI2
aNaF2.0
aF3.0
aI0
aF53.0
aF65.0
aa(lp605
I1
aNaF0.407947515
aI0
aF57.05071198
aF1.0
aF0.0
aI5
aI1
aF0.0
aF1.0
aI0
aF56.0
aF18.0
aa(lp606
I1
aF0.688442925
aF0.61811594
aI-1
aF76.88620342
aF3.0
aF1.0
aI4
aI5
aNaF4.0
aI0
aF57.0
aF68.0
aa(lp607
I1
aNaF0.75017681
aI1
aNaF2.0
aF3.0
aI2
aI4
aF3.0
aF3.0
aI1
aF51.0
aF41.0
aa(lp608
I1
aF0.361925033
aF0.828524969
aI-1
aF69.33471417
aF2.0
aF0.0
aI2
aI3
aF2.0
aF2.0
aI0
aF38.0
aNaa(lp609
I0
aF0.718715893
aF0.786378982
aNaF63.28945798
aF0.0
aF2.0
aI3
aI2
aF2.0
aF3.0
aI1
aF19.0
aF35.0
aa(lp610
I1
aF0.522269614
aF0.344228799
aI1
aF69.35775647
aF1.0
aF1.0
aI5
aI2
aF3.0
aF4.0
aI0
aF58.0
aF75.0
aa(lp611
I0
aF0.631807706
aF0.194090478
aI1
aF67.40970816
aF3.0
aF3.0
aI1
aI5
aF3.0
aF1.0
aI0
aF35.0
aF56.0
aa(lp612
I0
aF0.704918638
aF0.465458183
aI0
aF66.21843443
aF0.0
aF1.0
aI4
aI2
aF3.0
aF2.0
aI0
aF48.0
aF53.0
aa(lp613
I1
aF0.412435858
aF0.75897497
aI1
aF68.48512647
aF1.0
aF1.0
aI5
aI1
aF4.0
aF4.0
aI1
aF76.0
aF70.0
aa(lp614
I1
aF0.796676119
aF0.462195718
aI1
aF55.50869525
aF1.0
aF-1.0
aI5
aI4
aNaF3.0
aI0
aF87.0
aF61.0
aa(lp615
I0
aF0.357174125
aF0.862693659
aI-1
aF60.27843843
aF1.0
aF2.0
aI2
aNaF3.0
aF2.0
aI1
aF29.0
aF28.0
aa(lp616
I0
aNaF0.171506292
aI-1
aNaF0.0
aF1.0
aI2
aI5
aF4.0
aF0.0
aI0
aF42.0
aF58.0
aa(lp617
I0
aF0.319928905
aF0.021966733
aI-1
aF77.86131844
aF2.0
aF2.0
aI3
aI1
aF3.0
aF2.0
aI1
aF58.0
aF54.0
aa(lp618
I0
aF0.455735965
aF0.144283688
aI1
aF57.56964522
aF1.0
aF2.0
aI2
aI2
aF1.0
aF3.0
aI1
aF41.0
aF47.0
aa(lp619
I1
aF0.161876337
aF0.33585678
aI1
aF62.13425627
aF2.0
aF1.0
aI2
aI1
aF3.0
aF3.0
aI1
aF64.0
aF52.0
aa(lp620
I1
aF0.395253112
aF0.945960933
aI0
aF58.82194457
aF1.0
aNaI5
aI5
aF3.0
aF2.0
aI0
aF30.0
aF63.0
aa(lp621
I0
aF0.449869718
aF0.821785406
aI0
aF54.64837515
aF2.0
aF3.0
aI4
aI4
aF2.0
aF3.0
aI0
aF31.0
aF16.0
aa(lp622
I1
aF0.810456614
aF0.66669241
aI1
aF62.67359111
aF2.0
aF0.0
aI5
aI2
aF3.0
aF2.0
aI0
aNaF47.0
aa(lp623
I0
aF0.82937787
aF0.363800004
aI0
aF70.68689951
aF2.0
aF1.0
aI2
aI3
aF3.0
aF4.0
aI1
aNaF71.0
aa(lp624
I0
aF0.417837811
aF0.334916477
aI1
aF65.77326838
aF1.0
aF2.0
aI3
aI5
aF3.0
aF3.0
aI1
aF62.0
aF69.0
aa(lp625
I1
aF0.417044987
aF0.343655482
aI1
aF60.42144051
aF2.0
aF2.0
aI2
aI4
aF2.0
aF3.0
aI1
aF56.0
aF55.0
aa(lp626
I1
aF0.178868759
aF0.583562273
aI-1
aF61.02822248
aNaF2.0
aI3
aI1
aF3.0
aF4.0
aI0
aF47.0
aF78.0
aa(lp627
I1
aF0.880576206
aF0.552556344
aI1
aF73.37784126
aF2.0
aF0.0
aI5
aI5
aF1.0
aF2.0
aI0
aF54.0
aF29.0
aa(lp628
I1
aF0.696029628
aF0.459595148
aI-1
aF71.4920517
aF1.0
aF1.0
aI1
aI2
aF3.0
aF3.0
aI1
aF43.0
aF42.0
aa(lp629
I1
aF0.550475611
aF0.564867479
aI-1
aF65.81396937
aF1.0
aF0.0
aI5
aI5
aF2.0
aF0.0
aI0
aF28.0
aF75.0
aa(lp630
I0
aF0.802424446
aF0.300095036
aI1
aF58.11923555
aF2.0
aF3.0
aI4
aI5
aF2.0
aF3.0
aI1
aF17.0
aNaa(lp631
I0
aF0.445859156
aF0.245569441
aI1
aF54.67561198
aF0.0
aF1.0
aI5
aI3
aF2.0
aF3.0
aI0
aF40.0
aF49.0
aa(lp632
I1
aF0.873975878
aF0.599369867
aI-1
aF66.29338444
aF2.0
aF1.0
aI4
aI4
aF2.0
aF3.0
aI1
aF19.0
aNaa(lp633
I1
aF0.793379727
aF0.320512493
aI1
aF70.78912708
aNaF1.0
aI1
aI1
aF1.0
aF2.0
aNaF29.0
aF16.0
aa(lp634
I1
aF0.584601134
aF1.032545074
aI1
aF67.76125773
aF3.0
aF1.0
aI2
aI4
aF2.0
aF3.0
aI1
aF55.0
aF76.0
aa(lp635
I1
aF0.542695587
aF0.5253194
aI0
aF72.38605203
aF1.0
aF0.0
aNaI1
aF1.0
aF3.0
aI1
aF45.0
aF47.0
aa(lp636
I0
aF0.448755427
aNaI0
aF56.19615044
aF1.0
aF2.0
aI1
aI4
aF2.0
aF4.0
aI0
aNaF25.0
aa(lp637
I0
aF0.388920297
aF0.521233177
aI1
aF56.02083648
aF1.0
aF2.0
aI3
aI5
aF1.0
aNaI0
aF69.0
aF55.0
aa(lp638
I0
aF0.860491287
aF0.265268054
aI-1
aF55.04609468
aF1.0
aF3.0
aI4
aI5
aF2.0
aF2.0
aI0
aF65.0
aF44.0
aa(lp639
I1
aF-0.002398199
aF0.554705332
aI0
aF67.08794887
aF1.0
aF1.0
aNaI1
aF4.0
aF2.0
aI1
aF45.0
aF26.0
aa(lp640
I1
aF0.786282677
aF0.396481626
aI0
aF56.4439779
aF3.0
aF1.0
aI4
aI2
aF3.0
aF3.0
aI1
aF75.0
aF36.0
aa(lp641
I1
aF0.371570275
aF0.270054869
aI-1
aF66.83277015
aF1.0
aF1.0
aI4
aI1
aF4.0
aF1.0
aI0
aF70.0
aF52.0
aa(lp642
I1
aF0.408311587
aF0.280033622
aI-1
aNaF1.0
aF-1.0
aI5
aI4
aF1.0
aF3.0
aI1
aF17.0
aF42.0
aa(lp643
I1
aF0.672657201
aF0.556470122
aI1
aF71.73514293
aF1.0
aF1.0
aI4
aI4
aF4.0
aNaI1
aF36.0
aF57.0
aa(lp644
I1
aF0.417160654
aF0.314038631
aI0
aF76.90073437
aF3.0
aF2.0
aI4
aI5
aF2.0
aF5.0
aI0
aF54.0
aF43.0
aa(lp645
I0
aF0.351390494
aF0.464186625
aI1
aF55.37186994
aF0.0
aF4.0
aI2
aI2
aF4.0
aF1.0
aI0
aF51.0
aF48.0
aa(lp646
I1
aF0.370308212
aF0.718868497
aI0
aF68.76249217
aF3.0
aF0.0
aI1
aI3
aF4.0
aF2.0
aI0
aF64.0
aF25.0
aa(lp647
I1
aF0.402918324
aF0.750665905
aI0
aF62.80338922
aF2.0
aF1.0
aI4
aNaF2.0
aF2.0
aI1
aF64.0
aF75.0
aa(lp648
I1
aNaF0.257569781
aI-1
aF68.26825293
aF3.0
aF0.0
aI1
aNaF2.0
aF3.0
aI0
aF62.0
aF81.0
aa(lp649
I0
aF0.568131667
aF0.519713892
aI0
aF70.95526775
aF1.0
aF2.0
aNaI2
aF4.0
aF1.0
aI1
aF47.0
aF58.0
aa(lp650
I1
aF0.568030985
aF0.427175844
aI1
aF62.46861873
aF-1.0
aF-1.0
aI2
aI2
aF1.0
aF2.0
aI0
aF71.0
aF66.0
aa(lp651
I1
aF0.59110395
aF0.675496649
aI0
aNaF2.0
aF0.0
aI4
aI5
aF3.0
aF3.0
aI0
aF56.0
aF63.0
aa(lp652
I1
aF0.280339922
aF0.468243829
aI-1
aF57.09224231
aF2.0
aF1.0
aI3
aI4
aF2.0
aF1.0
aI0
aF15.0
aF31.0
aa(lp653
I1
aF0.455843367
aF0.592001421
aI0
aF61.71944407
aF3.0
aF1.0
aI2
aI5
aNaF3.0
aI1
aF31.0
aF66.0
aa(lp654
I0
aF0.316711147
aF0.305305519
aI1
aF52.01458749
aF1.0
aF2.0
aI4
aI5
aF2.0
aF2.0
aI1
aF69.0
aF44.0
aa(lp655
I1
aF0.308478298
aF0.782374048
aI1
aF69.77374669
aF1.0
aF1.0
aI4
aI1
aF3.0
aF3.0
aI1
aF58.0
aF62.0
aa(lp656
I1
aF0.687776701
aF0.57699486
aI-1
aF71.29677394
aF2.0
aF2.0
aI4
aI5
aF2.0
aF2.0
aI1
aF41.0
aF31.0
aa(lp657
I1
aF0.074846931
aF0.986899997
aI1
aF59.89212842
aF2.0
aF0.0
aI3
aI5
aF3.0
aF4.0
aI0
aF11.0
aF58.0
aa(lp658
I1
aF0.326898175
aF0.195529965
aI1
aF78.56332079
aF1.0
aF1.0
aI2
aI2
aF2.0
aF2.0
aI0
aF52.0
aF28.0
aa(lp659
I1
aF0.684621527
aF0.506159078
aNaF61.14335392
aF2.0
aF1.0
aI3
aI4
aF0.0
aF3.0
aI1
aF59.0
aF38.0
aa(lp660
I1
aF0.256863289
aF0.377791353
aI1
aF60.84739354
aNaF0.0
aI4
aI4
aF3.0
aF2.0
aI0
aF60.0
aF53.0
aa(lp661
I1
aF0.198908307
aF0.42220432
aI1
aF65.50682665
aF3.0
aF1.0
aI3
aI2
aNaF2.0
aI0
aF55.0
aF64.0
aa(lp662
I0
aF0.530035242
aF0.183833828
aI1
aF61.68436163
aF3.0
aF1.0
aI5
aI4
aF2.0
aF1.0
aI1
aF35.0
aNaa(lp663
I0
aF0.57596558
aF0.050022726
aI-1
aF70.62507718
aF3.0
aF-1.0
aI5
aI4
aF2.0
aF1.0
aI1
aF50.0
aF66.0
aa(lp664
I1
aF0.776969294
aF0.360713664
aI-1
aF63.37263265
aF2.0
aF1.0
aI2
aI5
aF2.0
aF2.0
aI1
aF55.0
aF79.0
aa(lp665
I1
aF0.472019876
aF0.716926397
aI0
aF55.38464704
aF2.0
aF2.0
aI5
aI2
aF2.0
aNaI0
aF35.0
aF38.0
aa(lp666
I1
aF0.403541319
aF0.590694959
aI1
aF68.39159173
aF2.0
aF1.0
aI3
aI2
aF3.0
aF6.0
aI0
aF64.0
aF42.0
aa(lp667
I0
aF0.61139842
aF0.529464919
aI-1
aF65.21682739
aF1.0
aF4.0
aI4
aI5
aF3.0
aF2.0
aI0
aF37.0
aF68.0
aa(lp668
I0
aF0.276934478
aF0.761682033
aI-1
aNaF0.0
aF2.0
aI2
aI3
aF1.0
aF3.0
aI1
aF89.0
aF93.0
aa(lp669
I0
aNaF0.133814854
aI-1
aF74.31795388
aF4.0
aF2.0
aI1
aI5
aF3.0
aF2.0
aI1
aF56.0
aF45.0
aa(lp670
I1
aF0.668299817
aF0.658273523
aI0
aF59.84380788
aF2.0
aF1.0
aI4
aI2
aF3.0
aF2.0
aI0
aF49.0
aF35.0
aa(lp671
I1
aF0.225998042
aF0.659124659
aNaF63.92520084
aF1.0
aF1.0
aI3
aI2
aF1.0
aF2.0
aI1
aF47.0
aF62.0
aa(lp672
I0
aF0.848399937
aF0.361249429
aI1
aF66.35499639
aF2.0
aF0.0
aI5
aI1
aF3.0
aF4.0
aI1
aF50.0
aF65.0
aa(lp673
I1
aF0.459530613
aF0.343543576
aI1
aF64.65843983
aF1.0
aF0.0
aI4
aI2
aF3.0
aF0.0
aI1
aF-7.0
aF34.0
aa(lp674
I1
aF0.361176818
aNaI-1
aNaF3.0
aNaI4
aNaF1.0
aF3.0
aI1
aF24.0
aF76.0
aa(lp675
I0
aF0.075635165
aF0.607979419
aI0
aF67.55480339
aF0.0
aF1.0
aI2
aI1
aF3.0
aF3.0
aI0
aF56.0
aF64.0
aa(lp676
I1
aNaF0.368491382
aI-1
aNaF2.0
aF1.0
aI1
aI5
aF1.0
aF1.0
aI0
aF66.0
aF49.0
aa(lp677
I1
aF0.431280762
aF0.602264834
aI1
aF60.54568816
aF2.0
aF0.0
aI4
aI1
aF4.0
aF2.0
aI0
aF23.0
aNaa(lp678
I0
aF0.495672885
aF0.413562277
aI-1
aF61.74652268
aF0.0
aNaI5
aI1
aF2.0
aF3.0
aI0
aF48.0
aF62.0
aa(lp679
I1
aF0.398481463
aNaI0
aF65.7125168
aF4.0
aF2.0
aI4
aI2
aF1.0
aF2.0
aI0
aF38.0
aF28.0
aa(lp680
I0
aF0.210855759
aF0.46810621
aNaF71.65877884
aF2.0
aF4.0
aI5
aI5
aNaF3.0
aNaF47.0
aF62.0
aa(lp681
I0
aF0.687137777
aF0.348890347
aI0
aF49.71053808
aF1.0
aF2.0
aI2
aI2
aF3.0
aF3.0
aI1
aF34.0
aF32.0
aa(lp682
I0
aF1.006240343
aF0.627032088
aI1
aF44.48586826
aF1.0
aF2.0
aNaI3
aF2.0
aF3.0
aI1
aF42.0
aF71.0
aa(lp683
I0
aF0.576254129
aF0.219204049
aI0
aF69.6199727
aF1.0
aF2.0
aI4
aI2
aF5.0
aF2.0
aI1
aF17.0
aF57.0
aa(lp684
I1
aF0.746389037
aF0.502468263
aI1
aF72.77225234
aF2.0
aF2.0
aI3
aI1
aF2.0
aF3.0
aNaF12.0
aF38.0
aa(lp685
I1
aF0.394674879
aF0.522753346
aI1
aF66.77766267
aF3.0
aF1.0
aI2
aI2
aF2.0
aF3.0
aI0
aF57.0
aF63.0
aa(lp686
I1
aF0.283447322
aF0.677719692
aI-1
aF69.8024553
aF2.0
aF2.0
aI1
aI1
aF4.0
aF2.0
aI0
aF36.0
aF75.0
aa(lp687
I0
aF0.17501927
aF0.231051502
aI1
aF58.6373406
aF1.0
aF2.0
aNaI4
aF1.0
aF3.0
aI1
aF42.0
aF38.0
aa(lp688
I1
aF0.430771453
aF0.721619854
aI1
aF54.13726141
aF1.0
aF0.0
aI5
aI4
aF1.0
aF3.0
aI0
aF30.0
aF50.0
aa(lp689
I0
aF0.428388288
aF0.69761739
aI1
aF66.48069405
aF0.0
aF1.0
aI5
aI1
aF1.0
aF2.0
aI1
aF44.0
aF36.0
aa(lp690
I0
aF0.077063847
aF0.411375712
aI-1
aF55.5062985
aF2.0
aF3.0
aI4
aI5
aF3.0
aF3.0
aI0
aF15.0
aNaa(lp691
I1
aF0.722778705
aF0.523586313
aI-1
aF59.55201803
aF2.0
aF2.0
aI2
aI2
aF4.0
aF3.0
aI1
aF35.0
aF60.0
aa(lp692
I1
aF0.614345576
aF0.366154144
aI-1
aF59.60813221
aF0.0
aF-2.0
aI5
aI1
aF2.0
aF4.0
aI1
aF42.0
aF31.0
aa(lp693
I1
aF0.625203463
aF0.476690005
aI-1
aF67.48209458
aF2.0
aF2.0
aI3
aI4
aF2.0
aF2.0
aI1
aF6.0
aF66.0
aa(lp694
I0
aF0.321478335
aF0.540521531
aI1
aF60.86722095
aF0.0
aNaI2
aI3
aF2.0
aF3.0
aI1
aF25.0
aF28.0
aa(lp695
I1
aF0.393644996
aF0.339566694
aNaF61.38128808
aF1.0
aF1.0
aI1
aI1
aF2.0
aF3.0
aI1
aF34.0
aF29.0
aa(lp696
I1
aF0.474296955
aF0.357348402
aI0
aF69.90901326
aF2.0
aF1.0
aI3
aI3
aF2.0
aF1.0
aI1
aF42.0
aF52.0
aa(lp697
I1
aF0.512684654
aF0.771288449
aI0
aF80.87052783
aF1.0
aF1.0
aI3
aI4
aF2.0
aF4.0
aI0
aF56.0
aF59.0
aa(lp698
I1
aF0.458112226
aF0.46629986
aI1
aF64.42141947
aF3.0
aF0.0
aI4
aI3
aF2.0
aF2.0
aNaF59.0
aF56.0
aa(lp699
I1
aF0.7454664
aF0.613716889
aI0
aF61.17106903
aF2.0
aF1.0
aI5
aNaF2.0
aF2.0
aNaF53.0
aNaa(lp700
I0
aF0.705389755
aF0.692005749
aI0
aF50.09601377
aF2.0
aF3.0
aI4
aI2
aF3.0
aF3.0
aI0
aF48.0
aF59.0
aa(lp701
I1
aF0.672360845
aF0.686924618
aI1
aF66.61186535
aF2.0
aF1.0
aI5
aI1
aF3.0
aF1.0
aNaF40.0
aF29.0
aa(lp702
I1
aF0.457577701
aF0.451605284
aI1
aF56.55955082
aF2.0
aF2.0
aI2
aI3
aF3.0
aF2.0
aI1
aNaF84.0
aa(lp703
I0
aF0.510351495
aF0.572299232
aI-1
aF67.47111846
aNaF3.0
aI3
aI3
aF3.0
aF2.0
aI0
aF39.0
aF54.0
aa(lp704
I1
aF0.802664029
aF0.405835316
aI-1
aF57.58912213
aF0.0
aF1.0
aI1
aI2
aF2.0
aF0.0
aI1
aF43.0
aF10.0
aa(lp705
I0
aNaF0.218239124
aI-1
aF69.40784403
aF1.0
aF2.0
aI4
aI3
aF1.0
aF2.0
aI1
aF61.0
aF62.0
aa(lp706
I1
aF0.969700796
aF0.640466879
aI1
aF64.52881647
aF1.0
aF1.0
aI4
aI5
aF4.0
aF4.0
aI0
aF56.0
aF37.0
aa(lp707
I1
aF0.785018062
aNaI-1
aF65.27145656
aNaF3.0
aI3
aI3
aF4.0
aF3.0
aI1
aF76.0
aF-4.0
aa(lp708
I1
aF0.691537267
aF0.375016534
aI-1
aF65.30450943
aF0.0
aF2.0
aI1
aI3
aF2.0
aF2.0
aI1
aF82.0
aF35.0
aa(lp709
I0
aF0.577395989
aF0.405275299
aI0
aF67.0555709
aF0.0
aF2.0
aI2
aI4
aF2.0
aF3.0
aI1
aF76.0
aF60.0
aa(lp710
I1
aF0.46139803
aF0.417927599
aI0
aF59.02401025
aF2.0
aF1.0
aI3
aI4
aF2.0
aF2.0
aI1
aF47.0
aF45.0
aa(lp711
I0
aF0.577872445
aF0.397692149
aI0
aF75.35529697
aF1.0
aF2.0
aNaI2
aF4.0
aF4.0
aI0
aNaF80.0
aa(lp712
I0
aF0.320750915
aF0.349482841
aI-1
aF58.97856102
aF1.0
aF2.0
aI4
aI1
aF3.0
aF3.0
aI1
aF57.0
aF58.0
aa(lp713
I0
aF0.502686529
aF0.191005594
aI-1
aF61.36520155
aF2.0
aF1.0
aI3
aNaF1.0
aF1.0
aI1
aF10.0
aF79.0
aa(lp714
I1
aF0.677900476
aF0.394856761
aNaF62.60507905
aF0.0
aF0.0
aNaI3
aF4.0
aNaI0
aF87.0
aF14.0
aa(lp715
I1
aF0.244583592
aF0.323674446
aI-1
aF65.67407863
aF3.0
aF1.0
aI3
aI2
aNaF3.0
aI1
aF70.0
aF92.0
aa(lp716
I1
aF0.473576331
aF0.686519783
aI1
aF54.73090183
aF3.0
aF3.0
aI5
aI4
aNaF1.0
aI1
aF78.0
aF37.0
aa(lp717
I0
aF0.686023848
aNaI0
aF54.56743026
aF1.0
aF3.0
aI4
aI5
aF0.0
aF5.0
aI0
aF58.0
aF33.0
aa(lp718
I0
aF0.326637913
aF0.489972319
aI1
aF59.61588927
aF1.0
aF2.0
aI4
aI1
aF3.0
aF2.0
aI1
aF15.0
aF62.0
aa(lp719
I0
aF0.865834297
aF0.404826345
aI0
aF64.88596104
aNaF1.0
aI3
aI3
aF3.0
aF4.0
aI0
aF71.0
aF68.0
aa(lp720
I0
aF0.763580535
aF0.444645245
aI-1
aF53.08263998
aF3.0
aF2.0
aI4
aI4
aF3.0
aF2.0
aI0
aF31.0
aF74.0
aa(lp721
I1
aNaF0.540565856
aI0
aF67.9439379
aNaF2.0
aI4
aI1
aF2.0
aF2.0
aI1
aF93.0
aF82.0
aa(lp722
I0
aNaF0.009730027
aI-1
aF67.97155214
aF2.0
aF2.0
aI3
aI5
aF3.0
aF2.0
aI1
aF43.0
aF49.0
aa(lp723
I1
aF0.418621866
aF0.731013371
aI1
aF60.37416063
aF2.0
aF2.0
aI3
aI3
aF2.0
aF0.0
aI1
aF41.0
aF49.0
aa(lp724
I1
aF0.323765823
aF0.759849615
aI1
aF63.25561649
aF2.0
aF1.0
aNaI4
aF4.0
aF1.0
aI1
aF19.0
aF53.0
aa(lp725
I1
aF0.562060248
aF0.038072797
aI-1
aF58.80787005
aF0.0
aF2.0
aI5
aI2
aF1.0
aF2.0
aI1
aF24.0
aF1.0
aa(lp726
I0
aF0.309079367
aNaI-1
aF78.71511001
aF0.0
aF1.0
aI3
aI5
aF3.0
aNaI1
aNaF46.0
aa(lp727
I1
aF0.292612118
aNaNaF70.9124451
aF0.0
aF0.0
aI4
aI3
aF2.0
aF3.0
aI0
aF34.0
aF39.0
aa(lp728
I0
aF0.782406475
aF0.619834702
aI0
aF61.23497205
aF-1.0
aF2.0
aI1
aI1
aF4.0
aF3.0
aI0
aF65.0
aF60.0
aa(lp729
I1
aF0.908942844
aF0.856356536
aI0
aF79.18503912
aF2.0
aF1.0
aI5
aI1
aF2.0
aF1.0
aI0
aF77.0
aF51.0
aa(lp730
I1
aF0.467775489
aF0.555215588
aNaF63.82008997
aNaF1.0
aI4
aI3
aF2.0
aF2.0
aI1
aF61.0
aF96.0
aa(lp731
I1
aF0.289108465
aF0.885687452
aI1
aF76.85653379
aNaF3.0
aI1
aI3
aF2.0
aF2.0
aI0
aF46.0
aF57.0
aa(lp732
I1
aF0.679468384
aF0.632825868
aI1
aF56.34021476
aF1.0
aF0.0
aI4
aI3
aF2.0
aF1.0
aI1
aF77.0
aF44.0
aa(lp733
I1
aF0.426044359
aF0.874872997
aI-1
aF51.21897648
aF2.0
aF1.0
aNaI2
aF4.0
aF3.0
aI0
aF53.0
aF63.0
aa(lp734
I1
aF0.828862401
aF0.463675552
aI0
aNaF2.0
aF0.0
aI3
aI2
aF3.0
aF3.0
aI0
aF63.0
aF50.0
aa(lp735
I0
aF0.519973889
aF0.098498325
aI-1
aNaF3.0
aF3.0
aI4
aI2
aF3.0
aF2.0
aI1
aF36.0
aF48.0
aa(lp736
I1
aF0.378637554
aF0.365563662
aI0
aF66.47935275
aNaF1.0
aI4
aI1
aF2.0
aF4.0
aI0
aF40.0
aNaa(lp737
I1
aF0.542306603
aF0.457109069
aI1
aF57.28691688
aF2.0
aF1.0
aI3
aI1
aF2.0
aF3.0
aI0
aF42.0
aF48.0
aa(lp738
I1
aF0.630342742
aNaI0
aF66.43224365
aF1.0
aF1.0
aI3
aI5
aF1.0
aF3.0
aI1
aF23.0
aF50.0
aa(lp739
I1
aF0.4481627
aF0.535081527
aI0
aF59.72623754
aF0.0
aF0.0
aI5
aI2
aF3.0
aF2.0
aI0
aF32.0
aF64.0
aa(lp740
I1
aF0.735681855
aF0.727774254
aI1
aF62.44112152
aF2.0
aF2.0
aI1
aI5
aF4.0
aF4.0
aI0
aF47.0
aF55.0
aa(lp741
I1
aF0.515637684
aF0.672219106
aI0
aF70.96687143
aF1.0
aF1.0
aI4
aI2
aF1.0
aF2.0
aI0
aF33.0
aF37.0
aa(lp742
I1
aNaF0.508983779
aI-1
aF60.75806866
aF2.0
aF2.0
aI5
aI3
aF2.0
aF3.0
aI0
aF60.0
aF25.0
aa(lp743
I1
aF0.721647231
aF0.488359727
aI0
aF54.50587454
aF2.0
aF0.0
aI1
aI5
aF3.0
aF3.0
aI0
aF54.0
aF42.0
aa(lp744
I0
aF0.347665668
aF0.359214443
aI0
aF73.89512092
aF0.0
aF1.0
aI3
aI4
aF2.0
aF2.0
aI1
aF71.0
aF43.0
aa(lp745
I0
aF0.866245765
aF0.502461301
aI-1
aF60.63422384
aF2.0
aF3.0
aI5
aI1
aF2.0
aF2.0
aI0
aNaF62.0
aa(lp746
I1
aF0.582377003
aNaI-1
aF58.88252993
aF2.0
aF1.0
aI4
aI5
aF1.0
aF2.0
aI1
aF15.0
aF38.0
aa(lp747
I1
aF0.639286298
aF0.358984529
aI0
aF60.00164651
aF2.0
aF1.0
aI5
aI2
aF4.0
aF4.0
aI1
aF22.0
aF39.0
aa(lp748
I1
aNaF0.388359714
aI1
aF57.84025099
aF1.0
aF1.0
aI3
aI3
aF3.0
aF1.0
aI0
aF61.0
aF29.0
aa(lp749
I1
aNaF0.720514678
aI-1
aF75.10531621
aF1.0
aF2.0
aI5
aI4
aF2.0
aF2.0
aI0
aF54.0
aF13.0
aa(lp750
I1
aF0.831771581
aF0.468300286
aI-1
aF68.34857012
aF1.0
aF1.0
aI3
aNaF4.0
aF2.0
aI1
aF14.0
aF41.0
aa(lp751
I1
aF0.762072049
aF0.824592799
aI0
aF56.07861853
aF2.0
aF0.0
aI1
aNaF2.0
aF2.0
aI0
aF75.0
aF34.0
aa(lp752
I1
aF0.588169999
aF0.68073674
aNaF52.41296558
aF2.0
aNaI3
aI2
aNaF3.0
aI0
aF23.0
aF61.0
aa(lp753
I1
aF0.480370573
aF0.403915399
aI1
aF69.09407238
aF2.0
aF1.0
aI1
aI4
aF2.0
aF2.0
aI1
aF81.0
aF20.0
aa(lp754
I1
aF0.447175772
aF0.263149215
aI0
aF61.76679663
aF2.0
aF2.0
aI1
aI5
aF3.0
aF2.0
aNaF37.0
aF23.0
aa(lp755
I0
aF0.95789221
aF0.401667525
aI-1
aF71.62518984
aF1.0
aF1.0
aI5
aI4
aF3.0
aNaI0
aF48.0
aF47.0
aa(lp756
I1
aF0.807636626
aF0.627065003
aI1
aF79.52827349
aF4.0
aF3.0
aI4
aI5
aF4.0
aF3.0
aI0
aF34.0
aNaa(lp757
I1
aNaF0.381126765
aI1
aF67.69947014
aF0.0
aF0.0
aI5
aI2
aF3.0
aF2.0
aI0
aF71.0
aF51.0
aa(lp758
I1
aF0.262463125
aF0.523329797
aNaF72.65360145
aF4.0
aF0.0
aI5
aI3
aF2.0
aF3.0
aI1
aF78.0
aF50.0
aa(lp759
I0
aF0.206058168
aF0.606432826
aI1
aF51.53584885
aF0.0
aF1.0
aI1
aI3
aF4.0
aF2.0
aI0
aF51.0
aF99.0
aa(lp760
I1
aF0.334774631
aF0.412816096
aI-1
aF59.82347184
aF4.0
aF3.0
aI5
aI1
aF2.0
aF2.0
aNaF29.0
aF42.0
aa(lp761
I1
aF0.504425037
aF0.22094704
aI0
aNaF4.0
aF0.0
aI3
aI4
aF2.0
aF3.0
aI1
aF49.0
aF21.0
aa(lp762
I0
aF0.528248333
aNaI1
aF66.72394947
aF0.0
aF0.0
aI1
aI1
aF3.0
aF2.0
aI1
aF41.0
aF70.0
aa(lp763
I1
aF0.360760628
aF0.514431934
aI0
aF70.85966476
aF2.0
aF0.0
aI3
aI4
aF2.0
aF1.0
aI1
aF45.0
aF63.0
aa(lp764
I0
aF0.084595051
aF0.443461154
aI1
aF72.26035028
aF-1.0
aF2.0
aI1
aI5
aF4.0
aF4.0
aI0
aF58.0
aF48.0
aa(lp765
I0
aF0.593627366
aF0.427178044
aI0
aF71.10021894
aF2.0
aF3.0
aI5
aI3
aNaF1.0
aI1
aF54.0
aF59.0
aa(lp766
I0
aF0.563063028
aF0.206283846
aI-1
aF64.39709406
aF3.0
aF2.0
aI1
aI4
aF4.0
aF2.0
aI0
aF30.0
aF39.0
aa(lp767
I0
aF0.672041429
aF0.680122393
aI1
aF64.62213016
aF1.0
aF3.0
aI1
aI5
aF3.0
aF1.0
aI0
aF52.0
aF67.0
aa(lp768
I0
aF0.447798466
aF0.747767821
aI1
aF61.66322436
aF2.0
aF3.0
aNaI2
aNaF4.0
aI0
aF77.0
aF64.0
aa(lp769
I1
aF0.166943705
aF0.573535474
aI1
aF55.0452558
aF2.0
aF2.0
aI1
aI4
aF3.0
aF2.0
aI1
aNaF67.0
aa(lp770
I0
aF0.450980228
aF0.428630017
aI1
aF61.81251103
aF0.0
aF3.0
aI4
aI4
aF3.0
aF1.0
aI1
aF11.0
aF63.0
aa(lp771
I1
aF0.840705392
aF0.600289395
aI-1
aF68.35375491
aF4.0
aF3.0
aI5
aI3
aNaF3.0
aI0
aF33.0
aF36.0
aa(lp772
I1
aF0.49660141
aF0.569969853
aNaF65.63297836
aF1.0
aF1.0
aI2
aI2
aF3.0
aF3.0
aI1
aF53.0
aF69.0
aa(lp773
I1
aF0.354135501
aF0.686889841
aI-1
aF59.92468485
aF3.0
aF3.0
aI2
aI5
aF2.0
aF3.0
aI0
aF46.0
aF58.0
aa(lp774
I1
aNaF0.580521087
aI-1
aF69.29304389
aF1.0
aNaI5
aI2
aF2.0
aF3.0
aI0
aF90.0
aF32.0
aa(lp775
I1
aF0.669675498
aF0.474738758
aI-1
aF63.73896894
aF2.0
aF1.0
aI2
aI2
aF2.0
aF3.0
aI1
aF58.0
aF78.0
aa(lp776
I1
aF0.58818178
aF0.367047463
aI-1
aF67.59405283
aF2.0
aNaI4
aI3
aF4.0
aF3.0
aI1
aF34.0
aF26.0
aa(lp777
I1
aF0.34716855
aF0.740453936
aI-1
aF62.6600346
aF1.0
aF1.0
aI3
aI1
aF3.0
aF3.0
aI0
aF82.0
aF47.0
aa(lp778
I0
aF0.315426302
aNaI1
aF63.06220216
aF0.0
aF4.0
aI5
aI5
aNaF3.0
aI1
aF72.0
aF73.0
aa(lp779
I0
aF0.257912871
aF0.946179136
aI1
aF54.4086041
aF0.0
aF2.0
aNaI2
aF2.0
aF3.0
aI1
aF32.0
aF52.0
aa(lp780
I1
aF0.640835279
aF0.422018461
aI1
aF48.8331569
aF1.0
aF1.0
aI1
aI1
aF2.0
aF2.0
aI1
aF43.0
aF47.0
aa(lp781
I1
aF0.470709967
aF0.596616203
aI0
aF64.30859302
aF2.0
aNaI3
aI3
aF1.0
aNaI0
aF37.0
aF42.0
aa(lp782
I0
aF0.597379269
aF0.636616535
aI-1
aF69.55813243
aF0.0
aF2.0
aI2
aI5
aF2.0
aF1.0
aI0
aF32.0
aF58.0
aa(lp783
I1
aF0.156160079
aF0.867902524
aI1
aNaF2.0
aNaI4
aI5
aF2.0
aF2.0
aI1
aF73.0
aF66.0
aa(lp784
I1
aF0.271984097
aF0.756541799
aI0
aF79.99441211
aF2.0
aF1.0
aNaI5
aF3.0
aF1.0
aI0
aF59.0
aF42.0
aa(lp785
I0
aF0.718281008
aF0.356877466
aI1
aF55.88308297
aF1.0
aF3.0
aI3
aI5
aF2.0
aF3.0
aNaF63.0
aF98.0
aa(lp786
I1
aF0.513176649
aF0.469165035
aI1
aF59.34248764
aF1.0
aF1.0
aI3
aI2
aF1.0
aF2.0
aI0
aF48.0
aF51.0
aa(lp787
I0
aF0.492080698
aF0.630325584
aNaF57.28265151
aF-1.0
aF1.0
aI3
aI5
aF1.0
aF2.0
aI1
aF30.0
aF73.0
aa(lp788
I1
aF0.614698366
aF0.36180315
aI1
aF60.15219826
aF2.0
aF1.0
aI4
aI1
aF3.0
aF1.0
aI1
aF43.0
aF40.0
aa(lp789
I0
aF0.40563938
aF0.116024466
aI0
aF65.12427111
aF2.0
aF0.0
aI1
aI3
aF4.0
aNaI0
aF34.0
aF31.0
aa(lp790
I0
aF0.64738214
aNaI-1
aF71.38244
aF1.0
aF4.0
aI5
aI1
aF3.0
aF3.0
aI1
aF47.0
aF79.0
aa(lp791
I1
aF0.500992393
aF0.483846627
aI0
aF53.21845358
aF1.0
aF0.0
aI4
aI1
aF3.0
aF4.0
aI0
aF30.0
aF55.0
aa(lp792
I1
aF0.679490413
aF0.496982832
aI0
aF68.60989732
aF2.0
aF1.0
aNaI2
aF2.0
aNaI0
aF79.0
aNaa(lp793
I1
aF0.80061238
aF0.61159629
aI1
aF72.99956417
aF2.0
aF2.0
aI4
aI2
aF3.0
aF3.0
aI1
aF38.0
aF32.0
aa(lp794
I1
aF0.867394315
aF1.047175722
aI1
aF74.92857682
aF1.0
aF1.0
aI1
aI1
aF2.0
aF5.0
aI1
aF47.0
aF48.0
aa(lp795
I1
aF0.712310495
aF0.807841264
aI0
aF67.68948465
aF1.0
aF1.0
aI3
aI5
aF1.0
aF2.0
aI0
aF60.0
aF28.0
aa(lp796
I0
aF0.465306172
aF0.575897502
aI1
aF62.19710732
aNaF3.0
aI1
aI4
aF3.0
aF3.0
aI0
aF51.0
aF34.0
aa(lp797
I1
aF0.206285532
aF0.411636374
aNaF68.29517216
aF1.0
aF1.0
aNaI3
aF3.0
aF2.0
aI1
aF73.0
aF28.0
aa(lp798
I0
aF0.285097724
aF0.701875508
aNaF61.95684574
aF-1.0
aF2.0
aI1
aI3
aF2.0
aF3.0
aI1
aF44.0
aF70.0
aa(lp799
I0
aF0.538003694
aF0.44778545
aI0
aF55.16549475
aF0.0
aF1.0
aI1
aI2
aF5.0
aF2.0
aNaF47.0
aF46.0
aa(lp800
I1
aF0.569226495
aF0.819031142
aI1
aF65.53283835
aF3.0
aF1.0
aI3
aI5
aF2.0
aF3.0
aI0
aF63.0
aF44.0
aa(lp801
I1
aF0.219309677
aF0.3953718
aI0
aF70.13828977
aF3.0
aF1.0
aI3
aI4
aF4.0
aF5.0
aI1
aF74.0
aF27.0
aa(lp802
I1
aF0.83093672
aF0.527537119
aI0
aF52.33497662
aF2.0
aF2.0
aI1
aI5
aF5.0
aF4.0
aI1
aF26.0
aF23.0
aa(lp803
I1
aF0.272330032
aF0.401026323
aI1
aF69.92460662
aF2.0
aF1.0
aI1
aI4
aF3.0
aF3.0
aI1
aF-7.0
aF10.0
aa(lp804
I0
aF0.359253695
aNaI-1
aF75.24235408
aF1.0
aF2.0
aI4
aI2
aF3.0
aF1.0
aI1
aF42.0
aF80.0
aa(lp805
I1
aF0.611776712
aF0.367480206
aI0
aF62.24323139
aF1.0
aF1.0
aI2
aI5
aF1.0
aF3.0
aI0
aF65.0
aF36.0
aa(lp806
I1
aF0.398096647
aF0.720532471
aI-1
aF65.22346574
aF3.0
aF3.0
aI1
aI3
aF2.0
aF3.0
aI0
aF30.0
aF34.0
aa(lp807
I1
aF0.314767512
aF0.723451267
aNaF66.931383
aF0.0
aF1.0
aI1
aI5
aF3.0
aF0.0
aNaF43.0
aF35.0
aa(lp808
I1
aF0.697400396
aF0.390897244
aI1
aF84.47648763
aF2.0
aF0.0
aI5
aI5
aF1.0
aF1.0
aI1
aF52.0
aF17.0
aa(lp809
I1
aF0.832705833
aF0.835401358
aI-1
aF73.86762465
aF1.0
aF1.0
aI5
aI1
aF1.0
aF4.0
aI0
aF14.0
aF60.0
aa(lp810
I1
aF0.739981642
aF0.657772307
aI-1
aF69.25591765
aF1.0
aF2.0
aI2
aI2
aF2.0
aF2.0
aI0
aF60.0
aNaa(lp811
I1
aF0.794352446
aF0.755549549
aI0
aF69.79134617
aF2.0
aF2.0
aI1
aI3
aF4.0
aF4.0
aI0
aF6.0
aF55.0
aa(lp812
I1
aF0.569712591
aF0.602530755
aI0
aF69.60252102
aF1.0
aF1.0
aI3
aI5
aF2.0
aF3.0
aI1
aF29.0
aF34.0
aa(lp813
I1
aF0.717326968
aF0.379502718
aI0
aF67.88735123
aF4.0
aF2.0
aI4
aI2
aF3.0
aF3.0
aI0
aF31.0
aF18.0
aa(lp814
I1
aF-0.102560122
aF0.449034266
aI0
aF70.80893327
aF1.0
aF1.0
aI5
aNaF4.0
aF2.0
aI0
aF29.0
aF47.0
aa(lp815
I0
aF0.584331363
aF0.653676144
aI1
aF59.13860148
aF2.0
aF3.0
aI4
aI5
aF2.0
aF3.0
aI0
aF74.0
aF65.0
aa(lp816
I0
aF0.813523941
aF0.333948275
aI-1
aF75.56867788
aF0.0
aF1.0
aI1
aI2
aF1.0
aF3.0
aI0
aF64.0
aF62.0
aa(lp817
I0
aF0.212844514
aF0.156951631
aI-1
aF71.16932119
aF0.0
aF1.0
aI1
aI2
aNaF2.0
aI1
aF50.0
aF86.0
aa(lp818
I0
aF0.65879912
aF0.554168728
aI0
aF61.7699026
aF1.0
aF2.0
aI5
aI3
aF4.0
aF2.0
aI1
aF48.0
aF51.0
aa(lp819
I1
aNaF0.382403185
aI1
aF72.66066775
aF3.0
aF2.0
aI1
aI4
aF3.0
aF3.0
aI1
aF45.0
aF49.0
aa(lp820
I1
aF0.439706516
aF0.4381968
aI0
aNaNaF1.0
aI4
aNaF1.0
aF2.0
aI0
aF70.0
aF50.0
aa(lp821
I1
aF1.016696776
aF0.536042389
aNaF66.63081806
aNaF1.0
aI4
aI4
aF4.0
aF2.0
aI1
aF44.0
aF67.0
aa(lp822
I1
aF0.638666526
aF0.539846044
aI0
aF65.96463766
aF3.0
aF2.0
aI1
aNaF4.0
aF3.0
aNaF43.0
aF76.0
aa(lp823
I1
aF0.604679429
aF0.544415288
aI-1
aF69.09216214
aF3.0
aF0.0
aI5
aI2
aF2.0
aF3.0
aI1
aF23.0
aF65.0
aa(lp824
I1
aF0.093542687
aF0.548960566
aI1
aF77.49148974
aF6.0
aF3.0
aI1
aI2
aF3.0
aF3.0
aI0
aF48.0
aNaa(lp825
I1
aF0.592971717
aF0.185470354
aI-1
aF65.77208835
aF2.0
aF2.0
aI2
aNaF2.0
aF2.0
aI1
aF74.0
aF41.0
aa(lp826
I0
aF0.482639637
aF0.284154828
aI-1
aF58.70158724
aF1.0
aF3.0
aI4
aNaF3.0
aF2.0
aI0
aF93.0
aNaa(lp827
I1
aF0.364021166
aF0.672342022
aI-1
aF74.98410834
aF2.0
aF1.0
aI2
aI4
aF4.0
aF1.0
aI0
aF37.0
aF60.0
aa(lp828
I0
aF0.727876184
aF0.457008976
aI0
aF71.96735246
aF0.0
aF3.0
aI5
aI2
aF4.0
aF3.0
aI0
aF73.0
aF54.0
aa(lp829
I0
aF0.782658583
aF0.474127805
aI0
aF67.639506
aF1.0
aNaI3
aI1
aF4.0
aF2.0
aI1
aF59.0
aF62.0
aa(lp830
I1
aF0.610438766
aF0.733081589
aI-1
aF75.07431249
aF3.0
aF1.0
aI3
aNaF3.0
aF4.0
aI1
aF50.0
aF37.0
aa(lp831
I1
aF0.585379877
aF0.529446699
aI0
aNaF2.0
aF2.0
aI1
aI3
aF3.0
aF4.0
aI1
aF75.0
aF45.0
aa(lp832
I0
aF0.467774705
aF0.353912798
aI-1
aF64.04201855
aF-1.0
aF1.0
aI3
aI3
aF1.0
aF1.0
aI0
aF18.0
aF13.0
aa(lp833
I0
aF0.537766225
aF0.571792041
aI1
aF59.70327958
aF1.0
aF2.0
aI1
aI1
aF1.0
aF3.0
aI0
aF59.0
aF98.0
aa(lp834
I1
aF0.485899276
aF0.622725187
aI1
aF70.72507057
aNaF0.0
aI4
aI1
aF1.0
aF2.0
aI1
aF25.0
aF79.0
aa(lp835
I1
aF0.767152619
aF0.689911196
aI-1
aF63.10060803
aF1.0
aF1.0
aI3
aI1
aF3.0
aF0.0
aI1
aF45.0
aF57.0
aa(lp836
I1
aF0.726709486
aF0.536344464
aI1
aF70.7813305
aF2.0
aF2.0
aI4
aI3
aF2.0
aF3.0
aI0
aF28.0
aF79.0
aa(lp837
I1
aF0.27010666
aF0.280073958
aI1
aF73.82474744
aF1.0
aF1.0
aNaI1
aF4.0
aF3.0
aI0
aF41.0
aF63.0
aa(lp838
I0
aF0.62973748
aF0.303182465
aI1
aF68.14820162
aF1.0
aF2.0
aI1
aI3
aF3.0
aF3.0
aI0
aF46.0
aF47.0
aa(lp839
I0
aF0.733882922
aF0.794292667
aI1
aF60.67411772
aF1.0
aF2.0
aI4
aI2
aF1.0
aF3.0
aI1
aF74.0
aF37.0
aa(lp840
I0
aF0.746149184
aF0.221363768
aI0
aF71.68662363
aF0.0
aF0.0
aI5
aI5
aF1.0
aF3.0
aI1
aF50.0
aF74.0
aa(lp841
I0
aF0.45873978
aF0.450694377
aI0
aF69.10106881
aF0.0
aF1.0
aNaI4
aF2.0
aF2.0
aI0
aF67.0
aF77.0
aa(lp842
I1
aF0.353591458
aF0.253043275
aI1
aF63.05601209
aF1.0
aF1.0
aI2
aI3
aF1.0
aF3.0
aI1
aF22.0
aF58.0
aa(lp843
I1
aF0.350214738
aF0.407247306
aI1
aF70.10047743
aF3.0
aF2.0
aI2
aI3
aF2.0
aF3.0
aI1
aF86.0
aF40.0
aa(lp844
I1
aF0.569146913
aF0.642827886
aI-1
aF60.11651398
aF2.0
aF0.0
aI2
aI1
aF3.0
aNaI1
aF37.0
aF55.0
aa(lp845
I1
aF0.434165242
aF0.403978374
aI0
aF55.43821004
aF1.0
aNaI4
aI5
aF2.0
aF2.0
aI1
aF-3.0
aF43.0
aa(lp846
I1
aF0.242623274
aF0.295959178
aI1
aF60.89965517
aF3.0
aF2.0
aI5
aI1
aF3.0
aF4.0
aI1
aF11.0
aF83.0
aa(lp847
I1
aF0.425045231
aF0.654836355
aI-1
aF54.31830178
aF2.0
aF2.0
aI4
aI2
aF3.0
aF3.0
aI1
aF46.0
aF38.0
aa(lp848
I1
aF0.849724711
aF0.26654948
aI0
aF75.37826685
aF2.0
aF1.0
aI5
aI3
aF3.0
aF0.0
aI1
aF46.0
aF30.0
aa(lp849
I1
aF0.367150281
aF0.595436933
aI0
aF61.76173198
aF2.0
aNaI1
aI4
aF3.0
aF3.0
aI0
aF25.0
aF70.0
aa(lp850
I1
aF0.277788978
aF0.147950198
aI-1
aF64.97654087
aNaF2.0
aI2
aI3
aF3.0
aF2.0
aNaF32.0
aF67.0
aa(lp851
I1
aF0.626030169
aF0.48220863
aI-1
aF67.31782916
aF1.0
aF0.0
aI3
aI4
aF2.0
aF3.0
aI1
aF0.0
aF54.0
aa(lp852
I0
aF0.193633143
aF0.299208795
aI0
aF51.70397722
aF-2.0
aF3.0
aI1
aI3
aF1.0
aF0.0
aI0
aF9.0
aF56.0
aa(lp853
I1
aF0.67370083
aF0.57356139
aI-1
aF61.22804535
aNaF2.0
aI5
aI5
aF3.0
aF6.0
aI1
aF51.0
aF75.0
aa(lp854
I0
aF0.535569803
aF0.247173366
aI-1
aF74.98515824
aF0.0
aF1.0
aI5
aI1
aF3.0
aF4.0
aI0
aF58.0
aF70.0
aa(lp855
I0
aF0.496337688
aF0.385512387
aI0
aF66.32742956
aF1.0
aF2.0
aI5
aI5
aF1.0
aF3.0
aI1
aF56.0
aF49.0
aa(lp856
I1
aF0.627708374
aF0.44994734
aI1
aF74.19495816
aF2.0
aF1.0
aI5
aI3
aNaF2.0
aI0
aF45.0
aF38.0
aa(lp857
I0
aF0.591611543
aF0.732085902
aI1
aF58.73567018
aF0.0
aF2.0
aI4
aI1
aF2.0
aF1.0
aI1
aF26.0
aF25.0
aa(lp858
I1
aF0.664043154
aF0.352876928
aI0
aNaF3.0
aF2.0
aI5
aI5
aF3.0
aF2.0
aI1
aF27.0
aF79.0
aa(lp859
I1
aF0.392421386
aF0.446281455
aI0
aF57.69991975
aF3.0
aF2.0
aNaI2
aF3.0
aF2.0
aI1
aF50.0
aF65.0
aa(lp860
I1
aF0.515314219
aF0.712880484
aI0
aF65.07389566
aF3.0
aF3.0
aI5
aI1
aF2.0
aF5.0
aNaF83.0
aF31.0
aa(lp861
I0
aF0.64664605
aF0.055659983
aI1
aF55.13934509
aF-1.0
aF1.0
aI2
aI5
aF3.0
aF3.0
aI0
aF44.0
aF33.0
aa(lp862
I0
aF0.560942753
aF0.432498534
aI0
aF54.72620412
aF0.0
aF1.0
aI5
aI4
aF2.0
aF4.0
aI0
aF35.0
aF51.0
aa(lp863
I1
aNaF0.5390149
aI1
aF58.88973644
aF2.0
aF1.0
aI2
aI5
aF3.0
aF1.0
aI1
aF75.0
aF51.0
aa(lp864
I0
aF0.427523528
aF0.553742581
aI-1
aF62.59616377
aF1.0
aF2.0
aI1
aI2
aF1.0
aF3.0
aI1
aF48.0
aF63.0
aa(lp865
I1
aF0.521532943
aF0.450260473
aI-1
aF66.39458336
aF1.0
aF1.0
aI5
aI1
aF4.0
aF3.0
aI0
aF42.0
aF34.0
aa(lp866
I1
aF0.542029857
aF0.75521695
aI1
aF67.59284692
aF3.0
aF1.0
aI3
aI1
aF4.0
aF2.0
aI0
aF3.0
aF42.0
aa(lp867
I1
aF0.448053339
aF0.36345743
aI1
aF73.35873263
aF2.0
aF2.0
aI4
aI4
aF3.0
aF3.0
aI1
aF62.0
aF45.0
aa(lp868
I1
aF0.424115157
aF0.487860239
aI1
aF67.53681707
aF2.0
aNaI3
aI3
aF3.0
aF2.0
aI0
aF36.0
aF41.0
aa(lp869
I0
aNaF0.196299506
aI-1
aF71.73038069
aF2.0
aF3.0
aI1
aI5
aF2.0
aF3.0
aI1
aF64.0
aF61.0
aa(lp870
I1
aF0.664520157
aF0.624017102
aI1
aF72.56656761
aF3.0
aF2.0
aI4
aI1
aF1.0
aF4.0
aI1
aF64.0
aF46.0
aa(lp871
I1
aF0.395618366
aF1.038376538
aI1
aF65.2707033
aF2.0
aF0.0
aI2
aI4
aF4.0
aF2.0
aI0
aF55.0
aF24.0
aa(lp872
I1
aF0.203510183
aF0.519923464
aI1
aF70.73666439
aF2.0
aF2.0
aI5
aI4
aF2.0
aF2.0
aI1
aF59.0
aF41.0
aa(lp873
I1
aNaF0.476767813
aI0
aF60.8586672
aF3.0
aF-1.0
aI4
aI4
aF3.0
aF3.0
aI0
aF11.0
aF62.0
aa(lp874
I1
aF0.387833569
aF0.861903051
aI1
aF72.09379014
aF3.0
aF3.0
aI4
aI4
aF2.0
aF2.0
aI0
aF62.0
aF48.0
aa(lp875
I0
aNaF0.351846733
aI-1
aF52.52942651
aF0.0
aF1.0
aI3
aI1
aF3.0
aF4.0
aI0
aF40.0
aF80.0
aa(lp876
I0
aF0.386915147
aF0.431051514
aI-1
aF78.74271991
aF1.0
aF4.0
aI3
aI4
aF2.0
aF0.0
aI0
aF35.0
aF73.0
aa(lp877
I0
aF0.951389485
aF0.291028341
aI1
aF73.63955596
aF1.0
aF1.0
aI5
aI1
aF3.0
aF3.0
aI1
aF52.0
aF94.0
aa(lp878
I1
aF0.843709812
aF0.758749769
aI0
aNaF1.0
aF0.0
aI2
aI3
aF3.0
aF4.0
aI0
aF69.0
aF11.0
aa(lp879
I0
aF0.960468805
aF0.460693013
aI1
aF68.42457063
aF1.0
aF2.0
aI4
aI5
aF4.0
aF3.0
aI0
aF28.0
aF28.0
aa(lp880
I1
aF0.767078515
aF0.713604335
aI0
aF64.23578302
aF2.0
aF2.0
aI1
aI3
aNaF3.0
aI1
aF47.0
aF40.0
aa(lp881
I1
aF-0.163513426
aNaI1
aF64.60098658
aF2.0
aF3.0
aI3
aI5
aF4.0
aF2.0
aI0
aF105.0
aF42.0
aa(lp882
I0
aF0.582176264
aF0.548280129
aI-1
aF66.17492865
aF1.0
aF2.0
aI3
aI5
aF4.0
aF3.0
aI1
aF77.0
aF49.0
aa(lp883
I0
aNaF0.879421806
aI0
aF83.4922528
aF1.0
aF2.0
aI5
aI4
aF2.0
aF2.0
aI0
aF29.0
aF63.0
aa(lp884
I1
aF0.455864677
aF0.353621797
aI1
aF67.54179007
aF2.0
aF2.0
aI3
aI5
aF1.0
aF3.0
aI1
aF67.0
aF63.0
aa(lp885
I1
aF0.615468572
aF0.346880304
aI-1
aF59.20516947
aF1.0
aF1.0
aNaNaF2.0
aF2.0
aI1
aF56.0
aF33.0
aa(lp886
I1
aF0.474249118
aF0.789884429
aI0
aF61.6728532
aF1.0
aF1.0
aI2
aI3
aF3.0
aF4.0
aI1
aF62.0
aF48.0
aa(lp887
I1
aF0.550939863
aF0.596799465
aI1
aF62.16078382
aF2.0
aF1.0
aI4
aI4
aF4.0
aF3.0
aI0
aF64.0
aF35.0
aa(lp888
I1
aF0.434355319
aF0.565486516
aI0
aF78.28687962
aF3.0
aF2.0
aI3
aI5
aF3.0
aF2.0
aI0
aF52.0
aF61.0
aa(lp889
I1
aF0.515669439
aF0.514972223
aI-1
aF56.19916832
aF0.0
aF2.0
aI5
aI2
aF2.0
aF4.0
aI0
aF52.0
aF10.0
aa(lp890
I1
aF0.539456177
aF0.852378937
aI1
aF58.06505322
aF3.0
aF3.0
aI3
aI3
aF1.0
aF3.0
aI1
aF53.0
aF78.0
aa(lp891
I0
aF0.773289185
aF0.431181825
aI-1
aF61.70244355
aF1.0
aNaI1
aI4
aF2.0
aF1.0
aI0
aF14.0
aF66.0
aa(lp892
I1
aNaF0.272250591
aI-1
aF72.15577481
aF3.0
aF1.0
aI2
aI3
aNaF3.0
aI1
aF51.0
aF54.0
aa(lp893
I1
aF0.389240515
aF0.870225048
aI1
aF65.41209748
aF1.0
aF0.0
aI4
aI3
aF3.0
aF2.0
aI0
aF65.0
aNaa(lp894
I0
aF0.518147531
aF0.55061127
aI-1
aF66.03209448
aF1.0
aF2.0
aI5
aI5
aF2.0
aF2.0
aI1
aF40.0
aF89.0
aa(lp895
I1
aNaF0.230879153
aI-1
aF59.48873948
aF2.0
aF2.0
aI4
aI1
aF3.0
aNaI1
aF31.0
aF59.0
aa(lp896
I0
aF0.562509832
aF0.13412238
aI-1
aF74.98154773
aF2.0
aF1.0
aI2
aI4
aF4.0
aF2.0
aNaF69.0
aF84.0
aa(lp897
I1
aF0.068071698
aF0.391233371
aI0
aF57.19653318
aF3.0
aF3.0
aNaI3
aF3.0
aF2.0
aI1
aF55.0
aNaa(lp898
I1
aF0.204722309
aF0.384149112
aNaF51.72743839
aF3.0
aF0.0
aI2
aI2
aF3.0
aF5.0
aI1
aF72.0
aF54.0
aa(lp899
I1
aF0.885799705
aF0.59462838
aI1
aF56.58833026
aF2.0
aF1.0
aI3
aI3
aF2.0
aF1.0
aI1
aF8.0
aF8.0
aa(lp900
I0
aF0.857871759
aF0.169586094
aI-1
aF62.4388173
aF3.0
aNaI5
aNaF3.0
aF2.0
aI1
aF6.0
aF32.0
aa(lp901
I0
aF0.44578146
aF0.433457274
aI-1
aF59.13873935
aF2.0
aF3.0
aI1
aI3
aF3.0
aF4.0
aI0
aF43.0
aF60.0
aa(lp902
I1
aNaF0.76978007
aI0
aF66.56293986
aF2.0
aF0.0
aI1
aI3
aF3.0
aF3.0
aI1
aF78.0
aF78.0
aa(lp903
I1
aF0.498681614
aF0.546605043
aI1
aF58.82252923
aF3.0
aF1.0
aI1
aI4
aF1.0
aNaI0
aF63.0
aF71.0
aa(lp904
I1
aF0.651904144
aF0.396424875
aNaF62.54486373
aF2.0
aF0.0
aI4
aI3
aF2.0
aF2.0
aI0
aF70.0
aF17.0
aa(lp905
I1
aF0.219878248
aF0.774787367
aI0
aF70.3891579
aF2.0
aF1.0
aI4
aI3
aF0.0
aNaI0
aF61.0
aF65.0
aa(lp906
I0
aF0.521300503
aF0.41022616
aI-1
aF51.0358982
aNaF2.0
aI5
aI2
aF2.0
aF3.0
aI1
aF42.0
aF89.0
aa(lp907
I1
aF0.175445253
aF0.647980851
aI-1
aF67.79383085
aF1.0
aF-1.0
aI3
aI5
aNaF3.0
aI0
aF65.0
aF100.0
aa(lp908
I1
aF0.160033302
aF0.250860863
aI0
aF61.96840973
aF2.0
aF1.0
aI4
aI4
aF2.0
aF3.0
aI0
aF82.0
aF55.0
aa(lp909
I1
aF0.36814096
aF0.530851048
aI-1
aF82.38940154
aF3.0
aF2.0
aNaNaF2.0
aF1.0
aI1
aF57.0
aF27.0
aa(lp910
I1
aNaF0.701766987
aI-1
aF74.91599341
aF1.0
aF1.0
aI2
aI2
aF2.0
aF0.0
aI0
aF38.0
aF54.0
aa(lp911
I1
aF0.342963186
aF0.749597107
aI-1
aNaF1.0
aF1.0
aI5
aI2
aF3.0
aNaI1
aF43.0
aF77.0
aa(lp912
I1
aF0.181846122
aF0.23066075
aI-1
aF69.12425642
aF2.0
aF0.0
aI5
aI4
aF3.0
aF2.0
aI1
aNaF18.0
aa(lp913
I1
aF0.423500043
aF0.443760917
aI1
aF61.26824768
aF4.0
aF0.0
aI4
aI3
aF3.0
aF3.0
aI0
aF28.0
aF50.0
aa(lp914
I0
aF0.337026076
aF0.592202315
aI-1
aF61.09524121
aF1.0
aF2.0
aI5
aI2
aF3.0
aF4.0
aNaF62.0
aF55.0
aa(lp915
I1
aF0.412955487
aF0.386971019
aI-1
aF67.74859085
aF2.0
aF1.0
aI3
aI5
aNaF1.0
aI0
aF62.0
aF47.0
aa(lp916
I0
aF0.611080346
aF0.377046284
aI-1
aF69.79618526
aF2.0
aF3.0
aI2
aI4
aF2.0
aF3.0
aNaF54.0
aF46.0
aa(lp917
I1
aF0.317181884
aF0.371626801
aI0
aF70.96269243
aF1.0
aF1.0
aI4
aI3
aF3.0
aF2.0
aI1
aF62.0
aF60.0
aa(lp918
I1
aF0.495566883
aF0.550595151
aI-1
aF65.92277739
aF4.0
aF2.0
aI4
aI2
aF2.0
aF3.0
aNaF71.0
aF49.0
aa(lp919
I0
aF0.475173089
aF0.519264048
aI0
aF65.41023214
aF-1.0
aF2.0
aI1
aI3
aF2.0
aF4.0
aI0
aF59.0
aF42.0
aa(lp920
I0
aF0.559542372
aF0.490979187
aI0
aF69.42850098
aF1.0
aF2.0
aI5
aI3
aF4.0
aF2.0
aI1
aNaF48.0
aa(lp921
I1
aF0.533969039
aF0.639753521
aI1
aF61.7390619
aF1.0
aF1.0
aI3
aI2
aF2.0
aF4.0
aI0
aF71.0
aNaa(lp922
I1
aF0.881459765
aF0.754404452
aI1
aF68.37574865
aF2.0
aF2.0
aI5
aI4
aF2.0
aF3.0
aI1
aF36.0
aF29.0
aa(lp923
I0
aF0.543497898
aF0.816883708
aI0
aF58.48883884
aF0.0
aF2.0
aI1
aI4
aF2.0
aF3.0
aI1
aF38.0
aF59.0
aa(lp924
I1
aF0.760389631
aF0.412786619
aI1
aF66.22694301
aF2.0
aF1.0
aI2
aI3
aNaF2.0
aI0
aF96.0
aF62.0
aa(lp925
I1
aF0.615741218
aF0.563068946
aI0
aF64.92355637
aF2.0
aF0.0
aI4
aI1
aF1.0
aF3.0
aI1
aF50.0
aF77.0
aa(lp926
I0
aF0.741471492
aF0.619306566
aI-1
aF64.72176602
aF0.0
aF3.0
aI3
aI3
aF2.0
aF0.0
aI1
aF32.0
aF38.0
aa(lp927
I1
aNaF0.745390521
aI-1
aF75.21313794
aF3.0
aF1.0
aI5
aI4
aF3.0
aF1.0
aI0
aF81.0
aF49.0
aa(lp928
I1
aF0.288289913
aF0.690511965
aI0
aF68.95085444
aF1.0
aF1.0
aI1
aI3
aF2.0
aF2.0
aI1
aF73.0
aF34.0
aa(lp929
I1
aF0.81575798
aF0.34985793
aI0
aF68.71128241
aF1.0
aF0.0
aI3
aI1
aF3.0
aF3.0
aI1
aF30.0
aF31.0
aa(lp930
I1
aF0.379674529
aF0.439416385
aI0
aF68.30557064
aF2.0
aF2.0
aI4
aI3
aF3.0
aF2.0
aI1
aF62.0
aF59.0
aa(lp931
I0
aF0.418842143
aF0.54606671
aI1
aF68.67979897
aF0.0
aF1.0
aI1
aI3
aNaF4.0
aI0
aF56.0
aF62.0
aa(lp932
I1
aF0.500445457
aF0.674152751
aI-1
aF73.39524191
aF3.0
aF2.0
aNaNaF3.0
aF2.0
aI1
aF66.0
aF58.0
aa(lp933
I0
aNaF0.683118963
aI1
aF54.17071719
aF1.0
aNaI5
aI1
aF2.0
aF3.0
aI0
aF41.0
aF54.0
aa(lp934
I0
aF0.709076401
aF0.728522775
aI-1
aF60.41042078
aF1.0
aF3.0
aI2
aI4
aF3.0
aF4.0
aI0
aF70.0
aF63.0
aa(lp935
I0
aF0.512735385
aF0.249357688
aI0
aF69.03238262
aF1.0
aF3.0
aI5
aI2
aF3.0
aF2.0
aI1
aF57.0
aF44.0
aa(lp936
I1
aF0.508434706
aF0.695882032
aI0
aF69.95230979
aF2.0
aF2.0
aI3
aI1
aF1.0
aF3.0
aI0
aF39.0
aF77.0
aa(lp937
I1
aF0.485078241
aF0.723047213
aI1
aF63.77998129
aF2.0
aF2.0
aNaI1
aF3.0
aF1.0
aI0
aF4.0
aNaa(lp938
I1
aF0.484915096
aF0.237817871
aI0
aF63.40589782
aF3.0
aF2.0
aI3
aI5
aF3.0
aF1.0
aI0
aF53.0
aF42.0
aa(lp939
I1
aF0.701568879
aF0.508807817
aI1
aF69.60277628
aF3.0
aF2.0
aI2
aI5
aF3.0
aF3.0
aI1
aF61.0
aF12.0
aa(lp940
I0
aF0.198939574
aF0.563424109
aI1
aF57.72931785
aF2.0
aF3.0
aI3
aI3
aF3.0
aF2.0
aI0
aF14.0
aNaa(lp941
I1
aF0.281225327
aF0.604091272
aI-1
aF62.41335576
aF3.0
aF0.0
aI1
aI2
aF1.0
aF4.0
aI1
aF17.0
aF44.0
aa(lp942
I0
aF0.559423683
aF0.170224935
aI-1
aF66.91892029
aF0.0
aF2.0
aI4
aI5
aF3.0
aF2.0
aI1
aF95.0
aF81.0
aa(lp943
I1
aF0.567697112
aF0.549499284
aI0
aF48.44667111
aF2.0
aF2.0
aI4
aI1
aF3.0
aF4.0
aI1
aF27.0
aF30.0
aa(lp944
I0
aF0.419315279
aF0.276728317
aNaF66.68679053
aF0.0
aF1.0
aI4
aI1
aF3.0
aF4.0
aI1
aF123.0
aF51.0
aa(lp945
I0
aF0.550675592
aF0.312111592
aI-1
aF72.60279271
aF1.0
aF2.0
aI3
aI4
aF5.0
aF2.0
aI0
aF31.0
aF41.0
aa(lp946
I1
aNaF0.523450011
aI1
aF70.38456823
aNaF-1.0
aI2
aI5
aF1.0
aF5.0
aI0
aF19.0
aF29.0
aa(lp947
I0
aF0.630123782
aF0.332427835
aI-1
aF69.02160435
aF0.0
aF1.0
aI5
aI4
aF2.0
aF1.0
aI0
aF39.0
aF48.0
aa(lp948
I1
aF0.472773173
aF0.831392405
aI-1
aF60.06436682
aNaF1.0
aI3
aI3
aF1.0
aF3.0
aI0
aF52.0
aF45.0
aa(lp949
I0
aF0.298335241
aNaNaF76.92778144
aF1.0
aF2.0
aNaI1
aF4.0
aF2.0
aI0
aNaF41.0
aa(lp950
I1
aF0.425549156
aF0.62490519
aI1
aF58.45594467
aF3.0
aF2.0
aI3
aI5
aF3.0
aF2.0
aI1
aF60.0
aF30.0
aa.