(imodules.node
Node
p0
(dp1
S'name'
p2
S'rundifferential'
p3
sS'splitting_value'
p4
F120.0
sS'except_value'
p5
I1
sS'label'
p6
NsS'decision_attribute'
p7
I12
sS'is_nominal'
p8
I00
sS'children'
p9
(dp10
I0
(imodules.node
Node
p11
(dp12
g2
S'oppwinningpercent'
p13
sg4
F0.006858342
sg5
I1
sg6
Nsg7
I2
sg8
I00
sg9
(dp14
I0
(imodules.node
Node
p15
(dp16
g2
Nsg4
Nsg5
Nsg6
I1
sg7
Nsg8
Nsg9
(dp17
sbsI1
(imodules.node
Node
p18
(dp19
g2
S'numinjured'
p20
sg4
F1.0
sg5
I1
sg6
Nsg7
I5
sg8
I00
sg9
(dp21
I0
(imodules.node
Node
p22
(dp23
g2
S'oppnuminjured'
p24
sg4
F1.0
sg5
I0
sg6
Nsg7
I6
sg8
I00
sg9
(dp25
I0
(imodules.node
Node
p26
(dp27
g2
g13
sg4
F0.366154144
sg5
I1
sg6
Nsg7
I2
sg8
I00
sg9
(dp28
I0
(imodules.node
Node
p29
(dp30
g2
Nsg4
Nsg5
Nsg6
I0
sg7
Nsg8
Nsg9
(dp31
sbsI1
(imodules.node
Node
p32
(dp33
g2
g20
sg4
F-1.0
sg5
I1
sg6
Nsg7
I5
sg8
I00
sg9
(dp34
I0
(imodules.node
Node
p35
(dp36
g2
Nsg4
Nsg5
Nsg6
I0
sg7
Nsg8
Nsg9
(dp37
sbsI1
(imodules.node
Node
p38
(dp39
g2
Nsg4
Nsg5
Nsg6
I1
sg7
Nsg8
Nsg9
(dp40
sbssbssbsI1
(imodules.node
Node
p41
(dp42
g2
S'opprundifferential'
p43
sg4
F13.0
sg5
I0
sg6
Nsg7
I13
sg8
I00
sg9
(dp44
I0
(imodules.node
Node
p45
(dp46
g2
Nsg4
Nsg5
Nsg6
I1
sg7
Nsg8
Nsg9
(dp47
sbsI1
(imodules.node
Node
p48
(dp49
g2
g3
sg4
F7.0
sg5
I0
sg6
Nsg7
I12
sg8
I00
sg9
(dp50
I0
(imodules.node
Node
p51
(dp52
g2
Nsg4
Nsg5
Nsg6
I1
sg7
Nsg8
Nsg9
(dp53
sbsI1
(imodules.node
Node
p54
(dp55
g2
g43
sg4
F25.0
sg5
I0
sg6
Nsg7
I13
sg8
I00
sg9
(dp56
I0
(imodules.node
Node
p57
(dp58
g2
g3
sg4
F66.0
sg5
I0
sg6
Nsg7
I12
sg8
I00
sg9
(dp59
I0
(imodules.node
Node
p60
(dp61
g2
Nsg4
Nsg5
Nsg6
I0
sg7
Nsg8
Nsg9
(dp62
sbsI1
(imodules.node
Node
p63
(dp64
g2
Nsg4
Nsg5
Nsg6
I1
sg7
Nsg8
Nsg9
(dp65
sbssbsI1
(imodules.node
Node
p66
(dp67
g2
g43
sg4
F38.0
sg5
I0
sg6
Nsg7
I13
sg8
I00
sg9
(dp68
I0
(imodules.node
Node
p69
(dp70
g2
S'oppdayssincegame'
p71
sg4
F1.0
sg5
I0
sg6
Nsg7
I10
sg8
I00
sg9
(dp72
I0
(imodules.node
Node
p73
(dp74
g2
Nsg4
Nsg5
Nsg6
I1
sg7
Nsg8
Nsg9
(dp75
sbsI1
(imodules.node
Node
p76
(dp77
g2
g3
sg4
F45.0
sg5
I0
sg6
Nsg7
I12
sg8
I00
sg9
(dp78
I0
(imodules.node
Node
p79
(dp80
g2
Nsg4
Nsg5
Nsg6
I0
sg7
Nsg8
Nsg9
(dp81
sbsI1
(imodules.node
Node
p82
(dp83
g2
S'dayssincegame'
p84
sg4
F3.0
sg5
I0
sg6
Nsg7
I9
sg8
I00
sg9
(dp85
I0
(imodules.node
Node
p86
(dp87
g2
Nsg4
Nsg5
Nsg6
I1
sg7
Nsg8
Nsg9
(dp88
sbsI1
(imodules.node
Node
p89
(dp90
g2
Nsg4
Nsg5
Nsg6
I0
sg7
Nsg8
Nsg9
(dp91
sbssbssbssbsI1
(imodules.node
Node
p92
(dp93
g2
Nsg4
Nsg5
Nsg6
I0
sg7
Nsg8
Nsg9
(dp94
sbssbssbssbssbssbsI1
(imodules.node
Node
p95
(dp96
g2
g13
sg4
F0.130825738
sg5
I1
sg6
Nsg7
I2
sg8
I00
sg9
(dp97
I0
(imodules.node
Node
p98
(dp99
g2
Nsg4
Nsg5
Nsg6
I0
sg7
Nsg8
Nsg9
(dp100
sbsI1
(imodules.node
Node
p101
(dp102
g2
g24
sg4
F4.0
sg5
I1
sg6
Nsg7
I6
sg8
I00
sg9
(dp103
I0
(imodules.node
Node
p104
(dp105
g2
g43
sg4
F2.0
sg5
I1
sg6
Nsg7
I13
sg8
I00
sg9
(dp106
I0
(imodules.node
Node
p107
(dp108
g2
Nsg4
Nsg5
Nsg6
I1
sg7
Nsg8
Nsg9
(dp109
sbsI1
(imodules.node
Node
p110
(dp111
g2
g24
sg4
F2.0
sg5
I1
sg6
Nsg7
I6
sg8
I00
sg9
(dp112
I0
(imodules.node
Node
p113
(dp114
g2
g13
sg4
F0.181462023
sg5
I1
sg6
Nsg7
I2
sg8
I00
sg9
(dp115
I0
(imodules.node
Node
p116
(dp117
g2
S'winpercent'
p118
sg4
F0.521351744
sg5
I0
sg6
Nsg7
I1
sg8
I00
sg9
(dp119
I0
(imodules.node
Node
p120
(dp121
g2
Nsg4
Nsg5
Nsg6
I1
sg7
Nsg8
Nsg9
(dp122
sbsI1
(imodules.node
Node
p123
(dp124
g2
Nsg4
Nsg5
Nsg6
I0
sg7
Nsg8
Nsg9
(dp125
sbssbsI1
(imodules.node
Node
p126
(dp127
g2
g71
sg4
F5.0
sg5
I1
sg6
Nsg7
I10
sg8
I00
sg9
(dp128
I0
(imodules.node
Node
p129
(dp130
g2
g43
sg4
F94.0
sg5
I1
sg6
Nsg7
I13
sg8
I00
sg9
(dp131
I0
(imodules.node
Node
p132
(dp133
g2
g13
sg4
F0.270054869
sg5
I1
sg6
Nsg7
I2
sg8
I00
sg9
(dp134
I0
(imodules.node
Node
p135
(dp136
g2
g13
sg4
F0.195529965
sg5
I1
sg6
Nsg7
I2
sg8
I00
sg9
(dp137
I0
(imodules.node
Node
p138
(dp139
g2
Nsg4
Nsg5
Nsg6
I0
sg7
Nsg8
Nsg9
(dp140
sbsI1
(imodules.node
Node
p141
(dp142
g2
g118
sg4
F0.791897269
sg5
I1
sg6
Nsg7
I1
sg8
I00
sg9
(dp143
I0
(imodules.node
Node
p144
(dp145
g2
Nsg4
Nsg5
Nsg6
I1
sg7
Nsg8
Nsg9
(dp146
sbsI1
(imodules.node
Node
p147
(dp148
g2
S'startingpitcher'
p149
sg4
Nsg5
I0
sg6
Nsg7
I7
sg8
I01
sg9
(dp150
I2
(imodules.node
Node
p151
(dp152
g2
Nsg4
Nsg5
Nsg6
I0
sg7
Nsg8
Nsg9
(dp153
sbsI5
(imodules.node
Node
p154
(dp155
g2
Nsg4
Nsg5
Nsg6
I1
sg7
Nsg8
Nsg9
(dp156
sbssbssbssbsI1
(imodules.node
Node
p157
(dp158
g2
g3
sg4
F8.0
sg5
I1
sg6
Nsg7
I12
sg8
I00
sg9
(dp159
I0
(imodules.node
Node
p160
(dp161
g2
S'weather'
p162
sg4
Nsg5
I1
sg6
Nsg7
I3
sg8
I01
sg9
(dp163
I0
(imodules.node
Node
p164
(dp165
g2
Nsg4
Nsg5
Nsg6
I0
sg7
Nsg8
Nsg9
(dp166
sbsI1
(imodules.node
Node
p167
(dp168
g2
Nsg4
Nsg5
Nsg6
I1
sg7
Nsg8
Nsg9
(dp169
sbsI-1
(imodules.node
Node
p170
(dp171
g2
Nsg4
Nsg5
Nsg6
I1
sg7
Nsg8
Nsg9
(dp172
sbssbsI1
(imodules.node
Node
p173
(dp174
g2
g118
sg4
F0.927672947
sg5
I1
sg6
Nsg7
I1
sg8
I00
sg9
(dp175
I0
(imodules.node
Node
p176
(dp177
g2
g13
sg4
F0.386125842
sg5
I1
sg6
Nsg7
I2
sg8
I00
sg9
(dp178
I0
(imodules.node
Node
p179
(dp180
g2
g118
sg4
F0.653068763
sg5
I1
sg6
Nsg7
I1
sg8
I00
sg9
(dp181
I0
(imodules.node
Node
p182
(dp183
g2
Nsg4
Nsg5
Nsg6
I1
sg7
Nsg8
Nsg9
(dp184
sbsI1
(imodules.node
Node
p185
(dp186
g2
g118
sg4
F0.699679147
sg5
I1
sg6
Nsg7
I1
sg8
I00
sg9
(dp187
I0
(imodules.node
Node
p188
(dp189
g2
Nsg4
Nsg5
Nsg6
I0
sg7
Nsg8
Nsg9
(dp190
sbsI1
(imodules.node
Node
p191
(dp192
g2
g118
sg4
F0.81575798
sg5
I1
sg6
Nsg7
I1
sg8
I00
sg9
(dp193
I0
(imodules.node
Node
p194
(dp195
g2
Nsg4
Nsg5
Nsg6
I1
sg7
Nsg8
Nsg9
(dp196
sbsI1
(imodules.node
Node
p197
(dp198
g2
g162
sg4
Nsg5
I0
sg6
Nsg7
I3
sg8
I01
sg9
(dp199
I0
(imodules.node
Node
p200
(dp201
g2
Nsg4
Nsg5
Nsg6
I1
sg7
Nsg8
Nsg9
(dp202
sbsI1
(imodules.node
Node
p203
(dp204
g2
Nsg4
Nsg5
Nsg6
I0
sg7
Nsg8
Nsg9
(dp205
sbssbssbssbssbsI1
(imodules.node
Node
p206
(dp207
g2
Nsg4
Nsg5
Nsg6
I1
sg7
Nsg8
Nsg9
(dp208
sbssbsI1
(imodules.node
Node
p209
(dp210
g2
g162
sg4
Nsg5
I1
sg6
Nsg7
I3
sg8
I01
sg9
(dp211
I1
(imodules.node
Node
p212
(dp213
g2
Nsg4
Nsg5
Nsg6
I1
sg7
Nsg8
Nsg9
(dp214
sbsI-1
(imodules.node
Node
p215
(dp216
g2
Nsg4
Nsg5
Nsg6
I0
sg7
Nsg8
Nsg9
(dp217
sbssbssbssbssbsI1
(imodules.node
Node
p218
(dp219
g2
g13
sg4
F0.543801741
sg5
I1
sg6
Nsg7
I2
sg8
I00
sg9
(dp220
I0
(imodules.node
Node
p221
(dp222
g2
Nsg4
Nsg5
Nsg6
I0
sg7
Nsg8
Nsg9
(dp223
sbsI1
(imodules.node
Node
p224
(dp225
g2
Nsg4
Nsg5
Nsg6
I1
sg7
Nsg8
Nsg9
(dp226
sbssbssbsI1
(imodules.node
Node
p227
(dp228
g2
Nsg4
Nsg5
Nsg6
I1
sg7
Nsg8
Nsg9
(dp229
sbssbssbsI1
(imodules.node
Node
p230
(dp231
g2
g20
sg4
F2.0
sg5
I1
sg6
Nsg7
I5
sg8
I00
sg9
(dp232
I0
(imodules.node
Node
p233
(dp234
g2
g43
sg4
F19.0
sg5
I0
sg6
Nsg7
I13
sg8
I00
sg9
(dp235
I0
(imodules.node
Node
p236
(dp237
g2
Nsg4
Nsg5
Nsg6
I1
sg7
Nsg8
Nsg9
(dp238
sbsI1
(imodules.node
Node
p239
(dp240
g2
g3
sg4
F95.0
sg5
I0
sg6
Nsg7
I12
sg8
I00
sg9
(dp241
I0
(imodules.node
Node
p242
(dp243
g2
g3
sg4
F2.0
sg5
I0
sg6
Nsg7
I12
sg8
I00
sg9
(dp244
I0
(imodules.node
Node
p245
(dp246
g2
Nsg4
Nsg5
Nsg6
I1
sg7
Nsg8
Nsg9
(dp247
sbsI1
(imodules.node
Node
p248
(dp249
g2
g43
sg4
F41.0
sg5
I0
sg6
Nsg7
I13
sg8
I00
sg9
(dp250
I0
(imodules.node
Node
p251
(dp252
g2
g3
sg4
F58.0
sg5
I0
sg6
Nsg7
I12
sg8
I00
sg9
(dp253
I0
(imodules.node
Node
p254
(dp255
g2
g71
sg4
F1.0
sg5
I0
sg6
Nsg7
I10
sg8
I00
sg9
(dp256
I0
(imodules.node
Node
p257
(dp258
g2
Nsg4
Nsg5
Nsg6
I1
sg7
Nsg8
Nsg9
(dp259
sbsI1
(imodules.node
Node
p260
(dp261
g2
g13
sg4
F0.846651946
sg5
I0
sg6
Nsg7
I2
sg8
I00
sg9
(dp262
I0
(imodules.node
Node
p263
(dp264
g2
Nsg4
Nsg5
Nsg6
I0
sg7
Nsg8
Nsg9
(dp265
sbsI1
(imodules.node
Node
p266
(dp267
g2
S'temperature'
p268
sg4
F60.27843843
sg5
I0
sg6
Nsg7
I4
sg8
I00
sg9
(dp269
I0
(imodules.node
Node
p270
(dp271
g2
Nsg4
Nsg5
Nsg6
I1
sg7
Nsg8
Nsg9
(dp272
sbsI1
(imodules.node
Node
p273
(dp274
g2
Nsg4
Nsg5
Nsg6
I0
sg7
Nsg8
Nsg9
(dp275
sbssbssbssbsI1
(imodules.node
Node
p276
(dp277
g2
g13
sg4
F0.470212545
sg5
I1
sg6
Nsg7
I2
sg8
I00
sg9
(dp278
I0
(imodules.node
Node
p279
(dp280
g2
Nsg4
Nsg5
Nsg6
I0
sg7
Nsg8
Nsg9
(dp281
sbsI1
(imodules.node
Node
p282
(dp283
g2
g118
sg4
F0.733882922
sg5
I1
sg6
Nsg7
I1
sg8
I00
sg9
(dp284
I0
(imodules.node
Node
p285
(dp286
g2
Nsg4
Nsg5
Nsg6
I1
sg7
Nsg8
Nsg9
(dp287
sbsI1
(imodules.node
Node
p288
(dp289
g2
g162
sg4
Nsg5
I0
sg6
Nsg7
I3
sg8
I01
sg9
(dp290
I1
(imodules.node
Node
p291
(dp292
g2
Nsg4
Nsg5
Nsg6
I0
sg7
Nsg8
Nsg9
(dp293
sbsI-1
(imodules.node
Node
p294
(dp295
g2
Nsg4
Nsg5
Nsg6
I1
sg7
Nsg8
Nsg9
(dp296
sbssbssbssbssbsI1
(imodules.node
Node
p297
(dp298
g2
Nsg4
Nsg5
Nsg6
I0
sg7
Nsg8
Nsg9
(dp299
sbssbssbsI1
(imodules.node
Node
p300
(dp301
g2
Nsg4
Nsg5
Nsg6
I1
sg7
Nsg8
Nsg9
(dp302
sbssbssbsI1
(imodules.node
Node
p303
(dp304
g2
g118
sg4
F0.19564506
sg5
I1
sg6
Nsg7
I1
sg8
I00
sg9
(dp305
I0
(imodules.node
Node
p306
(dp307
g2
Nsg4
Nsg5
Nsg6
I1
sg7
Nsg8
Nsg9
(dp308
sbsI1
(imodules.node
Node
p309
(dp310
g2
g84
sg4
F0.0
sg5
I1
sg6
Nsg7
I9
sg8
I00
sg9
(dp311
I0
(imodules.node
Node
p312
(dp313
g2
Nsg4
Nsg5
Nsg6
I0
sg7
Nsg8
Nsg9
(dp314
sbsI1
(imodules.node
Node
p315
(dp316
g2
g13
sg4
F0.185470354
sg5
I1
sg6
Nsg7
I2
sg8
I00
sg9
(dp317
I0
(imodules.node
Node
p318
(dp319
g2
Nsg4
Nsg5
Nsg6
I0
sg7
Nsg8
Nsg9
(dp320
sbsI1
(imodules.node
Node
p321
(dp322
g2
g24
sg4
F3.0
sg5
I1
sg6
Nsg7
I6
sg8
I00
sg9
(dp323
I0
(imodules.node
Node
p324
(dp325
g2
g268
sg4
F50.19845549
sg5
I1
sg6
Nsg7
I4
sg8
I00
sg9
(dp326
I0
(imodules.node
Node
p327
(dp328
g2
Nsg4
Nsg5
Nsg6
I1
sg7
Nsg8
Nsg9
(dp329
sbsI1
(imodules.node
Node
p330
(dp331
g2
g84
sg4
F1.0
sg5
I1
sg6
Nsg7
I9
sg8
I00
sg9
(dp332
I0
(imodules.node
Node
p333
(dp334
g2
S'homeaway'
p335
sg4
Nsg5
I0
sg6
Nsg7
I11
sg8
I01
sg9
(dp336
I0
(imodules.node
Node
p337
(dp338
g2
Nsg4
Nsg5
Nsg6
I1
sg7
Nsg8
Nsg9
(dp339
sbssbsI1
(imodules.node
Node
p340
(dp341
g2
g43
sg4
F96.0
sg5
I1
sg6
Nsg7
I13
sg8
I00
sg9
(dp342
I0
(imodules.node
Node
p343
(dp344
g2
g13
sg4
F0.231143581
sg5
I1
sg6
Nsg7
I2
sg8
I00
sg9
(dp345
I0
(imodules.node
Node
p346
(dp347
g2
g335
sg4
Nsg5
I1
sg6
Nsg7
I11
sg8
I01
sg9
(dp348
I0
(imodules.node
Node
p349
(dp350
g2
Nsg4
Nsg5
Nsg6
I0
sg7
Nsg8
Nsg9
(dp351
sbsI1
(imodules.node
Node
p352
(dp353
g2
Nsg4
Nsg5
Nsg6
I1
sg7
Nsg8
Nsg9
(dp354
sbssbsI1
(imodules.node
Node
p355
(dp356
g2
g71
sg4
F1.0
sg5
I1
sg6
Nsg7
I10
sg8
I00
sg9
(dp357
I0
(imodules.node
Node
p358
(dp359
g2
g13
sg4
F0.731013371
sg5
I1
sg6
Nsg7
I2
sg8
I00
sg9
(dp360
I0
(imodules.node
Node
p361
(dp362
g2
Nsg4
Nsg5
Nsg6
I0
sg7
Nsg8
Nsg9
(dp363
sbsI1
(imodules.node
Node
p364
(dp365
g2
Nsg4
Nsg5
Nsg6
I1
sg7
Nsg8
Nsg9
(dp366
sbssbsI1
(imodules.node
Node
p367
(dp368
g2
g268
sg4
F54.31830178
sg5
I1
sg6
Nsg7
I4
sg8
I00
sg9
(dp369
I0
(imodules.node
Node
p370
(dp371
g2
g335
sg4
Nsg5
I1
sg6
Nsg7
I11
sg8
I01
sg9
(dp372
I0
(imodules.node
Node
p373
(dp374
g2
Nsg4
Nsg5
Nsg6
I0
sg7
Nsg8
Nsg9
(dp375
sbsI1
(imodules.node
Node
p376
(dp377
g2
Nsg4
Nsg5
Nsg6
I1
sg7
Nsg8
Nsg9
(dp378
sbssbsI1
(imodules.node
Node
p379
(dp380
g2
Nsg4
Nsg5
Nsg6
I1
sg7
Nsg8
Nsg9
(dp381
sbssbssbssbsI1
(imodules.node
Node
p382
(dp383
g2
g162
sg4
Nsg5
I0
sg6
Nsg7
I3
sg8
I01
sg9
(dp384
I1
(imodules.node
Node
p385
(dp386
g2
Nsg4
Nsg5
Nsg6
I0
sg7
Nsg8
Nsg9
(dp387
sbsI-1
(imodules.node
Node
p388
(dp389
g2
Nsg4
Nsg5
Nsg6
I1
sg7
Nsg8
Nsg9
(dp390
sbssbssbssbssbsI1
(imodules.node
Node
p391
(dp392
g2
g20
sg4
F3.0
sg5
I0
sg6
Nsg7
I5
sg8
I00
sg9
(dp393
I0
(imodules.node
Node
p394
(dp395
g2
g118
sg4
F0.363905916
sg5
I0
sg6
Nsg7
I1
sg8
I00
sg9
(dp396
I0
(imodules.node
Node
p397
(dp398
g2
Nsg4
Nsg5
Nsg6
I0
sg7
Nsg8
Nsg9
(dp399
sbsI1
(imodules.node
Node
p400
(dp401
g2
Nsg4
Nsg5
Nsg6
I0
sg7
Nsg8
Nsg9
(dp402
sbssbsI1
(imodules.node
Node
p403
(dp404
g2
g13
sg4
F0.32616807
sg5
I1
sg6
Nsg7
I2
sg8
I00
sg9
(dp405
I0
(imodules.node
Node
p406
(dp407
g2
Nsg4
Nsg5
Nsg6
I0
sg7
Nsg8
Nsg9
(dp408
sbsI1
(imodules.node
Node
p409
(dp410
g2
g268
sg4
F58.06505322
sg5
I1
sg6
Nsg7
I4
sg8
I00
sg9
(dp411
I0
(imodules.node
Node
p412
(dp413
g2
Nsg4
Nsg5
Nsg6
I0
sg7
Nsg8
Nsg9
(dp414
sbsI1
(imodules.node
Node
p415
(dp416
g2
Nsg4
Nsg5
Nsg6
I1
sg7
Nsg8
Nsg9
(dp417
sbssbssbssbssbssbssbssbssbssbssbsI1
(imodules.node
Node
p418
(dp419
g2
g43
sg4
F28.0
sg5
I0
sg6
Nsg7
I13
sg8
I00
sg9
(dp420
I0
(imodules.node
Node
p421
(dp422
g2
Nsg4
Nsg5
Nsg6
I1
sg7
Nsg8
Nsg9
(dp423
sbsI1
(imodules.node
Node
p424
(dp425
g2
Nsg4
Nsg5
Nsg6
I0
sg7
Nsg8
Nsg9
(dp426
sbssbssbssbssbssbsI1
(imodules.node
Node
p427
(dp428
g2
Nsg4
Nsg5
Nsg6
I0
sg7
Nsg8
Nsg9
(dp429
sbssb.